ARM GAS  /var/folders/rj/9n9dpytj2n74_jwlj_p0xk9m0000gn/T//ccysdWyX.s 			page 1


   1              		.cpu cortex-m0
   2              		.arch armv6s-m
   3              		.fpu softvfp
   4              		.eabi_attribute 20, 1
   5              		.eabi_attribute 21, 1
   6              		.eabi_attribute 23, 3
   7              		.eabi_attribute 24, 1
   8              		.eabi_attribute 25, 1
   9              		.eabi_attribute 26, 1
  10              		.eabi_attribute 30, 1
  11              		.eabi_attribute 34, 0
  12              		.eabi_attribute 18, 4
  13              		.file	"gpio.c"
  14              		.text
  15              	.Ltext0:
  16              		.cfi_sections	.debug_frame
  17              		.file 1 "Core/Src/gpio.c"
  18              		.section	.text.MX_GPIO_Init,"ax",%progbits
  19              		.align	1
  20              		.global	MX_GPIO_Init
  21              		.syntax unified
  22              		.code	16
  23              		.thumb_func
  25              	MX_GPIO_Init:
  26              	.LFB40:
   1:Core/Src/gpio.c **** /* USER CODE BEGIN Header */
   2:Core/Src/gpio.c **** /**
   3:Core/Src/gpio.c ****   ******************************************************************************
   4:Core/Src/gpio.c ****   * @file    gpio.c
   5:Core/Src/gpio.c ****   * @brief   This file provides code for the configuration
   6:Core/Src/gpio.c ****   *          of all used GPIO pins.
   7:Core/Src/gpio.c ****   ******************************************************************************
   8:Core/Src/gpio.c ****   * @attention
   9:Core/Src/gpio.c ****   *
  10:Core/Src/gpio.c ****   * Copyright (c) 2024 STMicroelectronics.
  11:Core/Src/gpio.c ****   * All rights reserved.
  12:Core/Src/gpio.c ****   *
  13:Core/Src/gpio.c ****   * This software is licensed under terms that can be found in the LICENSE file
  14:Core/Src/gpio.c ****   * in the root directory of this software component.
  15:Core/Src/gpio.c ****   * If no LICENSE file comes with this software, it is provided AS-IS.
  16:Core/Src/gpio.c ****   *
  17:Core/Src/gpio.c ****   ******************************************************************************
  18:Core/Src/gpio.c ****   */
  19:Core/Src/gpio.c **** /* USER CODE END Header */
  20:Core/Src/gpio.c **** 
  21:Core/Src/gpio.c **** /* Includes ------------------------------------------------------------------*/
  22:Core/Src/gpio.c **** #include "gpio.h"
  23:Core/Src/gpio.c **** 
  24:Core/Src/gpio.c **** /* USER CODE BEGIN 0 */
  25:Core/Src/gpio.c **** 
  26:Core/Src/gpio.c **** /* USER CODE END 0 */
  27:Core/Src/gpio.c **** 
  28:Core/Src/gpio.c **** /*----------------------------------------------------------------------------*/
  29:Core/Src/gpio.c **** /* Configure GPIO                                                             */
  30:Core/Src/gpio.c **** /*----------------------------------------------------------------------------*/
  31:Core/Src/gpio.c **** /* USER CODE BEGIN 1 */
  32:Core/Src/gpio.c **** 
ARM GAS  /var/folders/rj/9n9dpytj2n74_jwlj_p0xk9m0000gn/T//ccysdWyX.s 			page 2


  33:Core/Src/gpio.c **** /* USER CODE END 1 */
  34:Core/Src/gpio.c **** 
  35:Core/Src/gpio.c **** /** Configure pins as
  36:Core/Src/gpio.c ****         * Analog
  37:Core/Src/gpio.c ****         * Input
  38:Core/Src/gpio.c ****         * Output
  39:Core/Src/gpio.c ****         * EVENT_OUT
  40:Core/Src/gpio.c ****         * EXTI
  41:Core/Src/gpio.c ****         * Free pins are configured automatically as Analog (this feature is enabled through
  42:Core/Src/gpio.c ****         * the Code Generation settings)
  43:Core/Src/gpio.c **** */
  44:Core/Src/gpio.c **** void MX_GPIO_Init(void)
  45:Core/Src/gpio.c **** {
  27              		.loc 1 45 1 view -0
  28              		.cfi_startproc
  29              		@ args = 0, pretend = 0, frame = 40
  30              		@ frame_needed = 0, uses_anonymous_args = 0
  31 0000 F0B5     		push	{r4, r5, r6, r7, lr}
  32              		.cfi_def_cfa_offset 20
  33              		.cfi_offset 4, -20
  34              		.cfi_offset 5, -16
  35              		.cfi_offset 6, -12
  36              		.cfi_offset 7, -8
  37              		.cfi_offset 14, -4
  38 0002 DE46     		mov	lr, fp
  39 0004 5746     		mov	r7, r10
  40 0006 4E46     		mov	r6, r9
  41 0008 4546     		mov	r5, r8
  42 000a E0B5     		push	{r5, r6, r7, lr}
  43              		.cfi_def_cfa_offset 36
  44              		.cfi_offset 8, -36
  45              		.cfi_offset 9, -32
  46              		.cfi_offset 10, -28
  47              		.cfi_offset 11, -24
  48 000c 8BB0     		sub	sp, sp, #44
  49              		.cfi_def_cfa_offset 80
  46:Core/Src/gpio.c **** 
  47:Core/Src/gpio.c ****   GPIO_InitTypeDef GPIO_InitStruct = {0};
  50              		.loc 1 47 3 view .LVU1
  51              		.loc 1 47 20 is_stmt 0 view .LVU2
  52 000e 1422     		movs	r2, #20
  53 0010 0021     		movs	r1, #0
  54 0012 05A8     		add	r0, sp, #20
  55 0014 FFF7FEFF 		bl	memset
  56              	.LVL0:
  48:Core/Src/gpio.c **** 
  49:Core/Src/gpio.c ****   /* GPIO Ports Clock Enable */
  50:Core/Src/gpio.c ****   __HAL_RCC_GPIOC_CLK_ENABLE();
  57              		.loc 1 50 3 is_stmt 1 view .LVU3
  58              	.LBB2:
  59              		.loc 1 50 3 view .LVU4
  60              		.loc 1 50 3 view .LVU5
  61 0018 774B     		ldr	r3, .L2
  62 001a 5A69     		ldr	r2, [r3, #20]
  63 001c 8021     		movs	r1, #128
  64 001e 0903     		lsls	r1, r1, #12
  65 0020 0A43     		orrs	r2, r1
ARM GAS  /var/folders/rj/9n9dpytj2n74_jwlj_p0xk9m0000gn/T//ccysdWyX.s 			page 3


  66 0022 5A61     		str	r2, [r3, #20]
  67              		.loc 1 50 3 view .LVU6
  68 0024 5A69     		ldr	r2, [r3, #20]
  69 0026 0A40     		ands	r2, r1
  70 0028 0092     		str	r2, [sp]
  71              		.loc 1 50 3 view .LVU7
  72 002a 009A     		ldr	r2, [sp]
  73              	.LBE2:
  74              		.loc 1 50 3 view .LVU8
  51:Core/Src/gpio.c ****   __HAL_RCC_GPIOF_CLK_ENABLE();
  75              		.loc 1 51 3 view .LVU9
  76              	.LBB3:
  77              		.loc 1 51 3 view .LVU10
  78              		.loc 1 51 3 view .LVU11
  79 002c 5A69     		ldr	r2, [r3, #20]
  80 002e 8021     		movs	r1, #128
  81 0030 C903     		lsls	r1, r1, #15
  82 0032 0A43     		orrs	r2, r1
  83 0034 5A61     		str	r2, [r3, #20]
  84              		.loc 1 51 3 view .LVU12
  85 0036 5A69     		ldr	r2, [r3, #20]
  86 0038 0A40     		ands	r2, r1
  87 003a 0192     		str	r2, [sp, #4]
  88              		.loc 1 51 3 view .LVU13
  89 003c 019A     		ldr	r2, [sp, #4]
  90              	.LBE3:
  91              		.loc 1 51 3 view .LVU14
  52:Core/Src/gpio.c ****   __HAL_RCC_GPIOA_CLK_ENABLE();
  92              		.loc 1 52 3 view .LVU15
  93              	.LBB4:
  94              		.loc 1 52 3 view .LVU16
  95              		.loc 1 52 3 view .LVU17
  96 003e 5A69     		ldr	r2, [r3, #20]
  97 0040 8021     		movs	r1, #128
  98 0042 8902     		lsls	r1, r1, #10
  99 0044 0A43     		orrs	r2, r1
 100 0046 5A61     		str	r2, [r3, #20]
 101              		.loc 1 52 3 view .LVU18
 102 0048 5A69     		ldr	r2, [r3, #20]
 103 004a 0A40     		ands	r2, r1
 104 004c 0292     		str	r2, [sp, #8]
 105              		.loc 1 52 3 view .LVU19
 106 004e 029A     		ldr	r2, [sp, #8]
 107              	.LBE4:
 108              		.loc 1 52 3 view .LVU20
  53:Core/Src/gpio.c ****   __HAL_RCC_GPIOB_CLK_ENABLE();
 109              		.loc 1 53 3 view .LVU21
 110              	.LBB5:
 111              		.loc 1 53 3 view .LVU22
 112              		.loc 1 53 3 view .LVU23
 113 0050 5A69     		ldr	r2, [r3, #20]
 114 0052 8021     		movs	r1, #128
 115 0054 C902     		lsls	r1, r1, #11
 116 0056 0A43     		orrs	r2, r1
 117 0058 5A61     		str	r2, [r3, #20]
 118              		.loc 1 53 3 view .LVU24
 119 005a 5A69     		ldr	r2, [r3, #20]
ARM GAS  /var/folders/rj/9n9dpytj2n74_jwlj_p0xk9m0000gn/T//ccysdWyX.s 			page 4


 120 005c 0A40     		ands	r2, r1
 121 005e 0392     		str	r2, [sp, #12]
 122              		.loc 1 53 3 view .LVU25
 123 0060 039A     		ldr	r2, [sp, #12]
 124              	.LBE5:
 125              		.loc 1 53 3 view .LVU26
  54:Core/Src/gpio.c ****   __HAL_RCC_GPIOD_CLK_ENABLE();
 126              		.loc 1 54 3 view .LVU27
 127              	.LBB6:
 128              		.loc 1 54 3 view .LVU28
 129              		.loc 1 54 3 view .LVU29
 130 0062 5A69     		ldr	r2, [r3, #20]
 131 0064 8021     		movs	r1, #128
 132 0066 4903     		lsls	r1, r1, #13
 133 0068 0A43     		orrs	r2, r1
 134 006a 5A61     		str	r2, [r3, #20]
 135              		.loc 1 54 3 view .LVU30
 136 006c 5B69     		ldr	r3, [r3, #20]
 137 006e 0B40     		ands	r3, r1
 138 0070 0493     		str	r3, [sp, #16]
 139              		.loc 1 54 3 view .LVU31
 140 0072 049B     		ldr	r3, [sp, #16]
 141              	.LBE6:
 142              		.loc 1 54 3 view .LVU32
  55:Core/Src/gpio.c **** 
  56:Core/Src/gpio.c ****   /*Configure GPIO pin Output Level */
  57:Core/Src/gpio.c ****   HAL_GPIO_WritePin(GPIOF, LED_Red_Pin|LED_Green_Pin, GPIO_PIN_RESET);
 143              		.loc 1 57 3 view .LVU33
 144 0074 614B     		ldr	r3, .L2+4
 145 0076 9846     		mov	r8, r3
 146 0078 0022     		movs	r2, #0
 147 007a 0321     		movs	r1, #3
 148 007c 1800     		movs	r0, r3
 149 007e FFF7FEFF 		bl	HAL_GPIO_WritePin
 150              	.LVL1:
  58:Core/Src/gpio.c **** 
  59:Core/Src/gpio.c ****   /*Configure GPIO pin Output Level */
  60:Core/Src/gpio.c ****   HAL_GPIO_WritePin(GPIOC, Salinity_A_Pin|Salinity_B_Pin|Salinity_C_Pin|Salinity_D_Pin
 151              		.loc 1 60 3 view .LVU34
 152 0082 5F4C     		ldr	r4, .L2+8
 153 0084 5F4B     		ldr	r3, .L2+12
 154 0086 9B46     		mov	fp, r3
 155 0088 0022     		movs	r2, #0
 156 008a 2100     		movs	r1, r4
 157 008c 1800     		movs	r0, r3
 158 008e FFF7FEFF 		bl	HAL_GPIO_WritePin
 159              	.LVL2:
  61:Core/Src/gpio.c ****                           |Salinity_E_Pin|Salinity_F_Pin|Salinity_G_Pin|Salinity_DP_Pin
  62:Core/Src/gpio.c ****                           |Salinity_DIG1_Pin|Salinity_DIG2_Pin|Salinity_DIG3_Pin, GPIO_PIN_RESET);
  63:Core/Src/gpio.c **** 
  64:Core/Src/gpio.c ****   /*Configure GPIO pin Output Level */
  65:Core/Src/gpio.c ****   HAL_GPIO_WritePin(GPIOA, Depth_A_Pin|Depth_B_Pin|Depth_C_Pin|Depth_D_Pin
 160              		.loc 1 65 3 view .LVU35
 161 0092 9023     		movs	r3, #144
 162 0094 DB05     		lsls	r3, r3, #23
 163 0096 9A46     		mov	r10, r3
 164 0098 0022     		movs	r2, #0
ARM GAS  /var/folders/rj/9n9dpytj2n74_jwlj_p0xk9m0000gn/T//ccysdWyX.s 			page 5


 165 009a 2100     		movs	r1, r4
 166 009c 1800     		movs	r0, r3
 167 009e FFF7FEFF 		bl	HAL_GPIO_WritePin
 168              	.LVL3:
  66:Core/Src/gpio.c ****                           |Depth_E_Pin|Depth_F_Pin|Depth_G_Pin|Depth_DP_Pin
  67:Core/Src/gpio.c ****                           |Depth_DIG1_Pin|Depth_DIG2_Pin|Depth_DIG3_Pin, GPIO_PIN_RESET);
  68:Core/Src/gpio.c **** 
  69:Core/Src/gpio.c ****   /*Configure GPIO pin Output Level */
  70:Core/Src/gpio.c ****   HAL_GPIO_WritePin(GPIOB, SPI_NSS_Pin|RS485_DE_Pin, GPIO_PIN_RESET);
 169              		.loc 1 70 3 view .LVU36
 170 00a2 8421     		movs	r1, #132
 171 00a4 584D     		ldr	r5, .L2+16
 172 00a6 0022     		movs	r2, #0
 173 00a8 4901     		lsls	r1, r1, #5
 174 00aa 2800     		movs	r0, r5
 175 00ac FFF7FEFF 		bl	HAL_GPIO_WritePin
 176              	.LVL4:
  71:Core/Src/gpio.c **** 
  72:Core/Src/gpio.c ****   /*Configure GPIO pins : PC13 PC14 PC15 PC11
  73:Core/Src/gpio.c ****                            PC12 */
  74:Core/Src/gpio.c ****   GPIO_InitStruct.Pin = GPIO_PIN_13|GPIO_PIN_14|GPIO_PIN_15|GPIO_PIN_11
 177              		.loc 1 74 3 view .LVU37
 178              		.loc 1 74 23 is_stmt 0 view .LVU38
 179 00b0 F823     		movs	r3, #248
 180 00b2 1B02     		lsls	r3, r3, #8
 181 00b4 0593     		str	r3, [sp, #20]
  75:Core/Src/gpio.c ****                           |GPIO_PIN_12;
  76:Core/Src/gpio.c ****   GPIO_InitStruct.Mode = GPIO_MODE_ANALOG;
 182              		.loc 1 76 3 is_stmt 1 view .LVU39
 183              		.loc 1 76 24 is_stmt 0 view .LVU40
 184 00b6 0327     		movs	r7, #3
 185 00b8 0697     		str	r7, [sp, #24]
  77:Core/Src/gpio.c ****   GPIO_InitStruct.Pull = GPIO_NOPULL;
 186              		.loc 1 77 3 is_stmt 1 view .LVU41
 187              		.loc 1 77 24 is_stmt 0 view .LVU42
 188 00ba 0024     		movs	r4, #0
 189 00bc 0794     		str	r4, [sp, #28]
  78:Core/Src/gpio.c ****   HAL_GPIO_Init(GPIOC, &GPIO_InitStruct);
 190              		.loc 1 78 3 is_stmt 1 view .LVU43
 191 00be 05A9     		add	r1, sp, #20
 192 00c0 5846     		mov	r0, fp
 193 00c2 FFF7FEFF 		bl	HAL_GPIO_Init
 194              	.LVL5:
  79:Core/Src/gpio.c **** 
  80:Core/Src/gpio.c ****   /*Configure GPIO pins : PFPin PFPin */
  81:Core/Src/gpio.c ****   GPIO_InitStruct.Pin = LED_Red_Pin|LED_Green_Pin;
 195              		.loc 1 81 3 view .LVU44
 196              		.loc 1 81 23 is_stmt 0 view .LVU45
 197 00c6 0597     		str	r7, [sp, #20]
  82:Core/Src/gpio.c ****   GPIO_InitStruct.Mode = GPIO_MODE_OUTPUT_PP;
 198              		.loc 1 82 3 is_stmt 1 view .LVU46
 199              		.loc 1 82 24 is_stmt 0 view .LVU47
 200 00c8 0126     		movs	r6, #1
 201 00ca 0696     		str	r6, [sp, #24]
  83:Core/Src/gpio.c ****   GPIO_InitStruct.Pull = GPIO_NOPULL;
 202              		.loc 1 83 3 is_stmt 1 view .LVU48
 203              		.loc 1 83 24 is_stmt 0 view .LVU49
ARM GAS  /var/folders/rj/9n9dpytj2n74_jwlj_p0xk9m0000gn/T//ccysdWyX.s 			page 6


 204 00cc 0794     		str	r4, [sp, #28]
  84:Core/Src/gpio.c ****   GPIO_InitStruct.Speed = GPIO_SPEED_FREQ_LOW;
 205              		.loc 1 84 3 is_stmt 1 view .LVU50
 206              		.loc 1 84 25 is_stmt 0 view .LVU51
 207 00ce 0894     		str	r4, [sp, #32]
  85:Core/Src/gpio.c ****   HAL_GPIO_Init(GPIOF, &GPIO_InitStruct);
 208              		.loc 1 85 3 is_stmt 1 view .LVU52
 209 00d0 05A9     		add	r1, sp, #20
 210 00d2 4046     		mov	r0, r8
 211 00d4 FFF7FEFF 		bl	HAL_GPIO_Init
 212              	.LVL6:
  86:Core/Src/gpio.c **** 
  87:Core/Src/gpio.c ****   /*Configure GPIO pins : PCPin PCPin PCPin PCPin
  88:Core/Src/gpio.c ****                            PCPin PCPin PCPin PCPin */
  89:Core/Src/gpio.c ****   GPIO_InitStruct.Pin = Salinity_A_Pin|Salinity_B_Pin|Salinity_C_Pin|Salinity_D_Pin
 213              		.loc 1 89 3 view .LVU53
 214              		.loc 1 89 23 is_stmt 0 view .LVU54
 215 00d8 FF23     		movs	r3, #255
 216 00da 9946     		mov	r9, r3
 217 00dc 0593     		str	r3, [sp, #20]
  90:Core/Src/gpio.c ****                           |Salinity_E_Pin|Salinity_F_Pin|Salinity_G_Pin|Salinity_DP_Pin;
  91:Core/Src/gpio.c ****   GPIO_InitStruct.Mode = GPIO_MODE_OUTPUT_PP;
 218              		.loc 1 91 3 is_stmt 1 view .LVU55
 219              		.loc 1 91 24 is_stmt 0 view .LVU56
 220 00de 0696     		str	r6, [sp, #24]
  92:Core/Src/gpio.c ****   GPIO_InitStruct.Pull = GPIO_NOPULL;
 221              		.loc 1 92 3 is_stmt 1 view .LVU57
 222              		.loc 1 92 24 is_stmt 0 view .LVU58
 223 00e0 0794     		str	r4, [sp, #28]
  93:Core/Src/gpio.c ****   GPIO_InitStruct.Speed = GPIO_SPEED_FREQ_LOW;
 224              		.loc 1 93 3 is_stmt 1 view .LVU59
 225              		.loc 1 93 25 is_stmt 0 view .LVU60
 226 00e2 0894     		str	r4, [sp, #32]
  94:Core/Src/gpio.c ****   HAL_GPIO_Init(GPIOC, &GPIO_InitStruct);
 227              		.loc 1 94 3 is_stmt 1 view .LVU61
 228 00e4 05A9     		add	r1, sp, #20
 229 00e6 5846     		mov	r0, fp
 230 00e8 FFF7FEFF 		bl	HAL_GPIO_Init
 231              	.LVL7:
  95:Core/Src/gpio.c **** 
  96:Core/Src/gpio.c ****   /*Configure GPIO pins : PAPin PAPin PAPin PAPin
  97:Core/Src/gpio.c ****                            PAPin PAPin PAPin PAPin */
  98:Core/Src/gpio.c ****   GPIO_InitStruct.Pin = Depth_A_Pin|Depth_B_Pin|Depth_C_Pin|Depth_D_Pin
 232              		.loc 1 98 3 view .LVU62
 233              		.loc 1 98 23 is_stmt 0 view .LVU63
 234 00ec 4B46     		mov	r3, r9
 235 00ee 0593     		str	r3, [sp, #20]
  99:Core/Src/gpio.c ****                           |Depth_E_Pin|Depth_F_Pin|Depth_G_Pin|Depth_DP_Pin;
 100:Core/Src/gpio.c ****   GPIO_InitStruct.Mode = GPIO_MODE_OUTPUT_PP;
 236              		.loc 1 100 3 is_stmt 1 view .LVU64
 237              		.loc 1 100 24 is_stmt 0 view .LVU65
 238 00f0 0696     		str	r6, [sp, #24]
 101:Core/Src/gpio.c ****   GPIO_InitStruct.Pull = GPIO_NOPULL;
 239              		.loc 1 101 3 is_stmt 1 view .LVU66
 240              		.loc 1 101 24 is_stmt 0 view .LVU67
 241 00f2 0794     		str	r4, [sp, #28]
 102:Core/Src/gpio.c ****   GPIO_InitStruct.Speed = GPIO_SPEED_FREQ_LOW;
ARM GAS  /var/folders/rj/9n9dpytj2n74_jwlj_p0xk9m0000gn/T//ccysdWyX.s 			page 7


 242              		.loc 1 102 3 is_stmt 1 view .LVU68
 243              		.loc 1 102 25 is_stmt 0 view .LVU69
 244 00f4 0894     		str	r4, [sp, #32]
 103:Core/Src/gpio.c ****   HAL_GPIO_Init(GPIOA, &GPIO_InitStruct);
 245              		.loc 1 103 3 is_stmt 1 view .LVU70
 246 00f6 05A9     		add	r1, sp, #20
 247 00f8 5046     		mov	r0, r10
 248 00fa FFF7FEFF 		bl	HAL_GPIO_Init
 249              	.LVL8:
 104:Core/Src/gpio.c **** 
 105:Core/Src/gpio.c ****   /*Configure GPIO pins : PFPin PFPin PFPin */
 106:Core/Src/gpio.c ****   GPIO_InitStruct.Pin = DIG3_4_Pin|DIG3_8_Pin|DIG3_2_Pin;
 250              		.loc 1 106 3 view .LVU71
 251              		.loc 1 106 23 is_stmt 0 view .LVU72
 252 00fe B023     		movs	r3, #176
 253 0100 0593     		str	r3, [sp, #20]
 107:Core/Src/gpio.c ****   GPIO_InitStruct.Mode = GPIO_MODE_INPUT;
 254              		.loc 1 107 3 is_stmt 1 view .LVU73
 255              		.loc 1 107 24 is_stmt 0 view .LVU74
 256 0102 0694     		str	r4, [sp, #24]
 108:Core/Src/gpio.c ****   GPIO_InitStruct.Pull = GPIO_PULLDOWN;
 257              		.loc 1 108 3 is_stmt 1 view .LVU75
 258              		.loc 1 108 24 is_stmt 0 view .LVU76
 259 0104 AE3B     		subs	r3, r3, #174
 260 0106 9946     		mov	r9, r3
 261 0108 0793     		str	r3, [sp, #28]
 109:Core/Src/gpio.c ****   HAL_GPIO_Init(GPIOF, &GPIO_InitStruct);
 262              		.loc 1 109 3 is_stmt 1 view .LVU77
 263 010a 05A9     		add	r1, sp, #20
 264 010c 4046     		mov	r0, r8
 265 010e FFF7FEFF 		bl	HAL_GPIO_Init
 266              	.LVL9:
 110:Core/Src/gpio.c **** 
 111:Core/Src/gpio.c ****   /*Configure GPIO pins : PBPin PBPin PBPin PBPin
 112:Core/Src/gpio.c ****                            PBPin PBPin */
 113:Core/Src/gpio.c ****   GPIO_InitStruct.Pin = DIG1_4_Pin|DIG1_8_Pin|DIG2_2_Pin|DIG1_2_Pin
 267              		.loc 1 113 3 view .LVU78
 268              		.loc 1 113 23 is_stmt 0 view .LVU79
 269 0112 3E4B     		ldr	r3, .L2+20
 270 0114 0593     		str	r3, [sp, #20]
 114:Core/Src/gpio.c ****                           |DIG2_4_Pin|DIG2_8_Pin;
 115:Core/Src/gpio.c ****   GPIO_InitStruct.Mode = GPIO_MODE_INPUT;
 271              		.loc 1 115 3 is_stmt 1 view .LVU80
 272              		.loc 1 115 24 is_stmt 0 view .LVU81
 273 0116 0694     		str	r4, [sp, #24]
 116:Core/Src/gpio.c ****   GPIO_InitStruct.Pull = GPIO_PULLDOWN;
 274              		.loc 1 116 3 is_stmt 1 view .LVU82
 275              		.loc 1 116 24 is_stmt 0 view .LVU83
 276 0118 4B46     		mov	r3, r9
 277 011a 0793     		str	r3, [sp, #28]
 117:Core/Src/gpio.c ****   HAL_GPIO_Init(GPIOB, &GPIO_InitStruct);
 278              		.loc 1 117 3 is_stmt 1 view .LVU84
 279 011c 05A9     		add	r1, sp, #20
 280 011e 2800     		movs	r0, r5
 281 0120 FFF7FEFF 		bl	HAL_GPIO_Init
 282              	.LVL10:
 118:Core/Src/gpio.c **** 
ARM GAS  /var/folders/rj/9n9dpytj2n74_jwlj_p0xk9m0000gn/T//ccysdWyX.s 			page 8


 119:Core/Src/gpio.c ****   /*Configure GPIO pins : PBPin PBPin */
 120:Core/Src/gpio.c ****   GPIO_InitStruct.Pin = DIG1_1_Pin|DIG2_1_Pin;
 283              		.loc 1 120 3 view .LVU85
 284              		.loc 1 120 23 is_stmt 0 view .LVU86
 285 0124 3A4B     		ldr	r3, .L2+24
 286 0126 0593     		str	r3, [sp, #20]
 121:Core/Src/gpio.c ****   GPIO_InitStruct.Mode = GPIO_MODE_IT_RISING_FALLING;
 287              		.loc 1 121 3 is_stmt 1 view .LVU87
 288              		.loc 1 121 24 is_stmt 0 view .LVU88
 289 0128 C423     		movs	r3, #196
 290 012a 9B03     		lsls	r3, r3, #14
 291 012c 0693     		str	r3, [sp, #24]
 122:Core/Src/gpio.c ****   GPIO_InitStruct.Pull = GPIO_PULLDOWN;
 292              		.loc 1 122 3 is_stmt 1 view .LVU89
 293              		.loc 1 122 24 is_stmt 0 view .LVU90
 294 012e 4A46     		mov	r2, r9
 295 0130 0792     		str	r2, [sp, #28]
 123:Core/Src/gpio.c ****   HAL_GPIO_Init(GPIOB, &GPIO_InitStruct);
 296              		.loc 1 123 3 is_stmt 1 view .LVU91
 297 0132 05A9     		add	r1, sp, #20
 298 0134 2800     		movs	r0, r5
 299 0136 FFF7FEFF 		bl	HAL_GPIO_Init
 300              	.LVL11:
 124:Core/Src/gpio.c **** 
 125:Core/Src/gpio.c ****   /*Configure GPIO pin : PtPin */
 126:Core/Src/gpio.c ****   GPIO_InitStruct.Pin = SPI_NSS_Pin;
 301              		.loc 1 126 3 view .LVU92
 302              		.loc 1 126 23 is_stmt 0 view .LVU93
 303 013a 8023     		movs	r3, #128
 304 013c 5B01     		lsls	r3, r3, #5
 305 013e 0593     		str	r3, [sp, #20]
 127:Core/Src/gpio.c ****   GPIO_InitStruct.Mode = GPIO_MODE_OUTPUT_OD;
 306              		.loc 1 127 3 is_stmt 1 view .LVU94
 307              		.loc 1 127 24 is_stmt 0 view .LVU95
 308 0140 1123     		movs	r3, #17
 309 0142 0693     		str	r3, [sp, #24]
 128:Core/Src/gpio.c ****   GPIO_InitStruct.Pull = GPIO_NOPULL;
 310              		.loc 1 128 3 is_stmt 1 view .LVU96
 311              		.loc 1 128 24 is_stmt 0 view .LVU97
 312 0144 0794     		str	r4, [sp, #28]
 129:Core/Src/gpio.c ****   GPIO_InitStruct.Speed = GPIO_SPEED_FREQ_LOW;
 313              		.loc 1 129 3 is_stmt 1 view .LVU98
 314              		.loc 1 129 25 is_stmt 0 view .LVU99
 315 0146 0894     		str	r4, [sp, #32]
 130:Core/Src/gpio.c ****   HAL_GPIO_Init(SPI_NSS_GPIO_Port, &GPIO_InitStruct);
 316              		.loc 1 130 3 is_stmt 1 view .LVU100
 317 0148 05A9     		add	r1, sp, #20
 318 014a 2800     		movs	r0, r5
 319 014c FFF7FEFF 		bl	HAL_GPIO_Init
 320              	.LVL12:
 131:Core/Src/gpio.c **** 
 132:Core/Src/gpio.c ****   /*Configure GPIO pins : PCPin PCPin PCPin */
 133:Core/Src/gpio.c ****   GPIO_InitStruct.Pin = Salinity_DIG1_Pin|Salinity_DIG2_Pin|Salinity_DIG3_Pin;
 321              		.loc 1 133 3 view .LVU101
 322              		.loc 1 133 23 is_stmt 0 view .LVU102
 323 0150 E022     		movs	r2, #224
 324 0152 D200     		lsls	r2, r2, #3
ARM GAS  /var/folders/rj/9n9dpytj2n74_jwlj_p0xk9m0000gn/T//ccysdWyX.s 			page 9


 325 0154 0592     		str	r2, [sp, #20]
 134:Core/Src/gpio.c ****   GPIO_InitStruct.Mode = GPIO_MODE_OUTPUT_OD;
 326              		.loc 1 134 3 is_stmt 1 view .LVU103
 327              		.loc 1 134 24 is_stmt 0 view .LVU104
 328 0156 1123     		movs	r3, #17
 329 0158 0693     		str	r3, [sp, #24]
 135:Core/Src/gpio.c ****   GPIO_InitStruct.Pull = GPIO_NOPULL;
 330              		.loc 1 135 3 is_stmt 1 view .LVU105
 331              		.loc 1 135 24 is_stmt 0 view .LVU106
 332 015a 0794     		str	r4, [sp, #28]
 136:Core/Src/gpio.c ****   GPIO_InitStruct.Speed = GPIO_SPEED_FREQ_LOW;
 333              		.loc 1 136 3 is_stmt 1 view .LVU107
 334              		.loc 1 136 25 is_stmt 0 view .LVU108
 335 015c 0894     		str	r4, [sp, #32]
 137:Core/Src/gpio.c ****   HAL_GPIO_Init(GPIOC, &GPIO_InitStruct);
 336              		.loc 1 137 3 is_stmt 1 view .LVU109
 337 015e 05A9     		add	r1, sp, #20
 338 0160 5846     		mov	r0, fp
 339 0162 FFF7FEFF 		bl	HAL_GPIO_Init
 340              	.LVL13:
 138:Core/Src/gpio.c **** 
 139:Core/Src/gpio.c ****   /*Configure GPIO pins : PAPin PAPin PAPin */
 140:Core/Src/gpio.c ****   GPIO_InitStruct.Pin = Depth_DIG1_Pin|Depth_DIG2_Pin|Depth_DIG3_Pin;
 341              		.loc 1 140 3 view .LVU110
 342              		.loc 1 140 23 is_stmt 0 view .LVU111
 343 0166 E022     		movs	r2, #224
 344 0168 D200     		lsls	r2, r2, #3
 345 016a 0592     		str	r2, [sp, #20]
 141:Core/Src/gpio.c ****   GPIO_InitStruct.Mode = GPIO_MODE_OUTPUT_OD;
 346              		.loc 1 141 3 is_stmt 1 view .LVU112
 347              		.loc 1 141 24 is_stmt 0 view .LVU113
 348 016c 1123     		movs	r3, #17
 349 016e 0693     		str	r3, [sp, #24]
 142:Core/Src/gpio.c ****   GPIO_InitStruct.Pull = GPIO_NOPULL;
 350              		.loc 1 142 3 is_stmt 1 view .LVU114
 351              		.loc 1 142 24 is_stmt 0 view .LVU115
 352 0170 0794     		str	r4, [sp, #28]
 143:Core/Src/gpio.c ****   GPIO_InitStruct.Speed = GPIO_SPEED_FREQ_LOW;
 353              		.loc 1 143 3 is_stmt 1 view .LVU116
 354              		.loc 1 143 25 is_stmt 0 view .LVU117
 355 0172 0894     		str	r4, [sp, #32]
 144:Core/Src/gpio.c ****   HAL_GPIO_Init(GPIOA, &GPIO_InitStruct);
 356              		.loc 1 144 3 is_stmt 1 view .LVU118
 357 0174 05A9     		add	r1, sp, #20
 358 0176 5046     		mov	r0, r10
 359 0178 FFF7FEFF 		bl	HAL_GPIO_Init
 360              	.LVL14:
 145:Core/Src/gpio.c **** 
 146:Core/Src/gpio.c ****   /*Configure GPIO pins : PA11 PA12 PA15 */
 147:Core/Src/gpio.c ****   GPIO_InitStruct.Pin = GPIO_PIN_11|GPIO_PIN_12|GPIO_PIN_15;
 361              		.loc 1 147 3 view .LVU119
 362              		.loc 1 147 23 is_stmt 0 view .LVU120
 363 017c 9823     		movs	r3, #152
 364 017e 1B02     		lsls	r3, r3, #8
 365 0180 0593     		str	r3, [sp, #20]
 148:Core/Src/gpio.c ****   GPIO_InitStruct.Mode = GPIO_MODE_ANALOG;
 366              		.loc 1 148 3 is_stmt 1 view .LVU121
ARM GAS  /var/folders/rj/9n9dpytj2n74_jwlj_p0xk9m0000gn/T//ccysdWyX.s 			page 10


 367              		.loc 1 148 24 is_stmt 0 view .LVU122
 368 0182 0697     		str	r7, [sp, #24]
 149:Core/Src/gpio.c ****   GPIO_InitStruct.Pull = GPIO_NOPULL;
 369              		.loc 1 149 3 is_stmt 1 view .LVU123
 370              		.loc 1 149 24 is_stmt 0 view .LVU124
 371 0184 0794     		str	r4, [sp, #28]
 150:Core/Src/gpio.c ****   HAL_GPIO_Init(GPIOA, &GPIO_InitStruct);
 372              		.loc 1 150 3 is_stmt 1 view .LVU125
 373 0186 05A9     		add	r1, sp, #20
 374 0188 5046     		mov	r0, r10
 375 018a FFF7FEFF 		bl	HAL_GPIO_Init
 376              	.LVL15:
 151:Core/Src/gpio.c **** 
 152:Core/Src/gpio.c ****   /*Configure GPIO pin : PtPin */
 153:Core/Src/gpio.c ****   GPIO_InitStruct.Pin = DIG3_1_Pin;
 377              		.loc 1 153 3 view .LVU126
 378              		.loc 1 153 23 is_stmt 0 view .LVU127
 379 018e 4023     		movs	r3, #64
 380 0190 0593     		str	r3, [sp, #20]
 154:Core/Src/gpio.c ****   GPIO_InitStruct.Mode = GPIO_MODE_IT_RISING_FALLING;
 381              		.loc 1 154 3 is_stmt 1 view .LVU128
 382              		.loc 1 154 24 is_stmt 0 view .LVU129
 383 0192 C423     		movs	r3, #196
 384 0194 9B03     		lsls	r3, r3, #14
 385 0196 0693     		str	r3, [sp, #24]
 155:Core/Src/gpio.c ****   GPIO_InitStruct.Pull = GPIO_PULLDOWN;
 386              		.loc 1 155 3 is_stmt 1 view .LVU130
 387              		.loc 1 155 24 is_stmt 0 view .LVU131
 388 0198 4B46     		mov	r3, r9
 389 019a 0793     		str	r3, [sp, #28]
 156:Core/Src/gpio.c ****   HAL_GPIO_Init(DIG3_1_GPIO_Port, &GPIO_InitStruct);
 390              		.loc 1 156 3 is_stmt 1 view .LVU132
 391 019c 05A9     		add	r1, sp, #20
 392 019e 4046     		mov	r0, r8
 393 01a0 FFF7FEFF 		bl	HAL_GPIO_Init
 394              	.LVL16:
 157:Core/Src/gpio.c **** 
 158:Core/Src/gpio.c ****   /*Configure GPIO pin : PD2 */
 159:Core/Src/gpio.c ****   GPIO_InitStruct.Pin = GPIO_PIN_2;
 395              		.loc 1 159 3 view .LVU133
 396              		.loc 1 159 23 is_stmt 0 view .LVU134
 397 01a4 0423     		movs	r3, #4
 398 01a6 0593     		str	r3, [sp, #20]
 160:Core/Src/gpio.c ****   GPIO_InitStruct.Mode = GPIO_MODE_ANALOG;
 399              		.loc 1 160 3 is_stmt 1 view .LVU135
 400              		.loc 1 160 24 is_stmt 0 view .LVU136
 401 01a8 0697     		str	r7, [sp, #24]
 161:Core/Src/gpio.c ****   GPIO_InitStruct.Pull = GPIO_NOPULL;
 402              		.loc 1 161 3 is_stmt 1 view .LVU137
 403              		.loc 1 161 24 is_stmt 0 view .LVU138
 404 01aa 0794     		str	r4, [sp, #28]
 162:Core/Src/gpio.c ****   HAL_GPIO_Init(GPIOD, &GPIO_InitStruct);
 405              		.loc 1 162 3 is_stmt 1 view .LVU139
 406 01ac 05A9     		add	r1, sp, #20
 407 01ae 1948     		ldr	r0, .L2+28
 408 01b0 FFF7FEFF 		bl	HAL_GPIO_Init
 409              	.LVL17:
ARM GAS  /var/folders/rj/9n9dpytj2n74_jwlj_p0xk9m0000gn/T//ccysdWyX.s 			page 11


 163:Core/Src/gpio.c **** 
 164:Core/Src/gpio.c ****   /*Configure GPIO pins : PBPin PBPin */
 165:Core/Src/gpio.c ****   GPIO_InitStruct.Pin = SW1_Pin|SW2_Pin;
 410              		.loc 1 165 3 view .LVU140
 411              		.loc 1 165 23 is_stmt 0 view .LVU141
 412 01b4 3023     		movs	r3, #48
 413 01b6 0593     		str	r3, [sp, #20]
 166:Core/Src/gpio.c ****   GPIO_InitStruct.Mode = GPIO_MODE_IT_FALLING;
 414              		.loc 1 166 3 is_stmt 1 view .LVU142
 415              		.loc 1 166 24 is_stmt 0 view .LVU143
 416 01b8 8423     		movs	r3, #132
 417 01ba 9B03     		lsls	r3, r3, #14
 418 01bc 0693     		str	r3, [sp, #24]
 167:Core/Src/gpio.c ****   GPIO_InitStruct.Pull = GPIO_PULLUP;
 419              		.loc 1 167 3 is_stmt 1 view .LVU144
 420              		.loc 1 167 24 is_stmt 0 view .LVU145
 421 01be 0796     		str	r6, [sp, #28]
 168:Core/Src/gpio.c ****   HAL_GPIO_Init(GPIOB, &GPIO_InitStruct);
 422              		.loc 1 168 3 is_stmt 1 view .LVU146
 423 01c0 05A9     		add	r1, sp, #20
 424 01c2 2800     		movs	r0, r5
 425 01c4 FFF7FEFF 		bl	HAL_GPIO_Init
 426              	.LVL18:
 169:Core/Src/gpio.c **** 
 170:Core/Src/gpio.c ****   /*Configure GPIO pin : PtPin */
 171:Core/Src/gpio.c ****   GPIO_InitStruct.Pin = RS485_DE_Pin;
 427              		.loc 1 171 3 view .LVU147
 428              		.loc 1 171 23 is_stmt 0 view .LVU148
 429 01c8 8023     		movs	r3, #128
 430 01ca 0593     		str	r3, [sp, #20]
 172:Core/Src/gpio.c ****   GPIO_InitStruct.Mode = GPIO_MODE_OUTPUT_PP;
 431              		.loc 1 172 3 is_stmt 1 view .LVU149
 432              		.loc 1 172 24 is_stmt 0 view .LVU150
 433 01cc 0696     		str	r6, [sp, #24]
 173:Core/Src/gpio.c ****   GPIO_InitStruct.Pull = GPIO_NOPULL;
 434              		.loc 1 173 3 is_stmt 1 view .LVU151
 435              		.loc 1 173 24 is_stmt 0 view .LVU152
 436 01ce 0794     		str	r4, [sp, #28]
 174:Core/Src/gpio.c ****   GPIO_InitStruct.Speed = GPIO_SPEED_FREQ_LOW;
 437              		.loc 1 174 3 is_stmt 1 view .LVU153
 438              		.loc 1 174 25 is_stmt 0 view .LVU154
 439 01d0 0894     		str	r4, [sp, #32]
 175:Core/Src/gpio.c ****   HAL_GPIO_Init(RS485_DE_GPIO_Port, &GPIO_InitStruct);
 440              		.loc 1 175 3 is_stmt 1 view .LVU155
 441 01d2 05A9     		add	r1, sp, #20
 442 01d4 2800     		movs	r0, r5
 443 01d6 FFF7FEFF 		bl	HAL_GPIO_Init
 444              	.LVL19:
 176:Core/Src/gpio.c **** 
 177:Core/Src/gpio.c ****   /* EXTI interrupt init*/
 178:Core/Src/gpio.c ****   HAL_NVIC_SetPriority(EXTI2_3_IRQn, 3, 0);
 445              		.loc 1 178 3 view .LVU156
 446 01da 0022     		movs	r2, #0
 447 01dc 0321     		movs	r1, #3
 448 01de 0620     		movs	r0, #6
 449 01e0 FFF7FEFF 		bl	HAL_NVIC_SetPriority
 450              	.LVL20:
ARM GAS  /var/folders/rj/9n9dpytj2n74_jwlj_p0xk9m0000gn/T//ccysdWyX.s 			page 12


 179:Core/Src/gpio.c ****   HAL_NVIC_EnableIRQ(EXTI2_3_IRQn);
 451              		.loc 1 179 3 view .LVU157
 452 01e4 0620     		movs	r0, #6
 453 01e6 FFF7FEFF 		bl	HAL_NVIC_EnableIRQ
 454              	.LVL21:
 180:Core/Src/gpio.c **** 
 181:Core/Src/gpio.c **** }
 455              		.loc 1 181 1 is_stmt 0 view .LVU158
 456 01ea 0BB0     		add	sp, sp, #44
 457              		@ sp needed
 458 01ec F0BC     		pop	{r4, r5, r6, r7}
 459 01ee BB46     		mov	fp, r7
 460 01f0 B246     		mov	r10, r6
 461 01f2 A946     		mov	r9, r5
 462 01f4 A046     		mov	r8, r4
 463 01f6 F0BD     		pop	{r4, r5, r6, r7, pc}
 464              	.L3:
 465              		.align	2
 466              	.L2:
 467 01f8 00100240 		.word	1073876992
 468 01fc 00140048 		.word	1207964672
 469 0200 FF070000 		.word	2047
 470 0204 00080048 		.word	1207961600
 471 0208 00040048 		.word	1207960576
 472 020c 0B0B0000 		.word	2827
 473 0210 04040000 		.word	1028
 474 0214 000C0048 		.word	1207962624
 475              		.cfi_endproc
 476              	.LFE40:
 478              		.text
 479              	.Letext0:
 480              		.file 2 "Drivers/CMSIS/Device/ST/STM32F0xx/Include/stm32f030x8.h"
 481              		.file 3 "/opt/local/arm-none-eabi/include/machine/_default_types.h"
 482              		.file 4 "/opt/local/arm-none-eabi/include/sys/_stdint.h"
 483              		.file 5 "Drivers/STM32F0xx_HAL_Driver/Inc/stm32f0xx_hal_gpio.h"
 484              		.file 6 "Drivers/STM32F0xx_HAL_Driver/Inc/stm32f0xx_hal_cortex.h"
 485              		.file 7 "<built-in>"
ARM GAS  /var/folders/rj/9n9dpytj2n74_jwlj_p0xk9m0000gn/T//ccysdWyX.s 			page 13

