ARM GAS  /var/folders/rj/9n9dpytj2n74_jwlj_p0xk9m0000gn/T//ccLmj4mt.s 			page 1


   1              		.cpu cortex-m0
   2              		.arch armv6s-m
   3              		.fpu softvfp
   4              		.eabi_attribute 20, 1
   5              		.eabi_attribute 21, 1
   6              		.eabi_attribute 23, 3
   7              		.eabi_attribute 24, 1
   8              		.eabi_attribute 25, 1
   9              		.eabi_attribute 26, 1
  10              		.eabi_attribute 30, 1
  11              		.eabi_attribute 34, 0
  12              		.eabi_attribute 18, 4
  13              		.file	"main.c"
  14              		.text
  15              	.Ltext0:
  16              		.cfi_sections	.debug_frame
  17              		.file 1 "Core/Src/main.c"
  18              		.section	.text.MX_NVIC_Init,"ax",%progbits
  19              		.align	1
  20              		.syntax unified
  21              		.code	16
  22              		.thumb_func
  24              	MX_NVIC_Init:
  25              	.LFB45:
   1:Core/Src/main.c **** /* USER CODE BEGIN Header */
   2:Core/Src/main.c **** /**
   3:Core/Src/main.c ****  ******************************************************************************
   4:Core/Src/main.c ****  * @file           : main.c
   5:Core/Src/main.c ****  * @brief          : Main program body
   6:Core/Src/main.c ****  ******************************************************************************
   7:Core/Src/main.c ****  * @attention
   8:Core/Src/main.c ****  *
   9:Core/Src/main.c ****  * Copyright (c) 2024 STMicroelectronics.
  10:Core/Src/main.c ****  * All rights reserved.
  11:Core/Src/main.c ****  *
  12:Core/Src/main.c ****  * This software is licensed under terms that can be found in the LICENSE file
  13:Core/Src/main.c ****  * in the root directory of this software component.
  14:Core/Src/main.c ****  * If no LICENSE file comes with this software, it is provided AS-IS.
  15:Core/Src/main.c ****  *
  16:Core/Src/main.c ****  ******************************************************************************
  17:Core/Src/main.c ****  */
  18:Core/Src/main.c **** /* USER CODE END Header */
  19:Core/Src/main.c **** /* Includes ------------------------------------------------------------------*/
  20:Core/Src/main.c **** #include "main.h"
  21:Core/Src/main.c **** #include "dma.h"
  22:Core/Src/main.c **** #include "spi.h"
  23:Core/Src/main.c **** #include "tim.h"
  24:Core/Src/main.c **** #include "usart.h"
  25:Core/Src/main.c **** #include "gpio.h"
  26:Core/Src/main.c **** 
  27:Core/Src/main.c **** /* Private includes ----------------------------------------------------------*/
  28:Core/Src/main.c **** /* USER CODE BEGIN Includes */
  29:Core/Src/main.c **** #include "RS485.h"
  30:Core/Src/main.c **** #include "ProbeConfig.h"
  31:Core/Src/main.c **** #include <stdio.h>
  32:Core/Src/main.c **** #include <string.h>
  33:Core/Src/main.c **** /* USER CODE END Includes */
ARM GAS  /var/folders/rj/9n9dpytj2n74_jwlj_p0xk9m0000gn/T//ccLmj4mt.s 			page 2


  34:Core/Src/main.c **** 
  35:Core/Src/main.c **** /* Private typedef -----------------------------------------------------------*/
  36:Core/Src/main.c **** /* USER CODE BEGIN PTD */
  37:Core/Src/main.c **** typedef enum
  38:Core/Src/main.c **** {
  39:Core/Src/main.c ****     DISPLAY_SALINITY_DEPTH = 0x00,
  40:Core/Src/main.c ****     DISPLAY_TEMPERATURE = 0x01,
  41:Core/Src/main.c ****     DISPLAY_DEPTH = 0x02,
  42:Core/Src/main.c ****     DISPLAY_RESISTANCE = 0x03,
  43:Core/Src/main.c ****     DISPLAY_CONDUCTIVITY = 0x04,
  44:Core/Src/main.c ****     DISPLAY_SALINITY = 0x05,
  45:Core/Src/main.c ****     DISPLAY_CONFIG_ELECTRODE = 0x06,
  46:Core/Src/main.c ****     DISPLAY_CONFIG_R1 = 0x07,
  47:Core/Src/main.c ****     DISPLAY_CONFIG_VOLTAGE_START = 0x08,
  48:Core/Src/main.c ****     DISPLAY_CONFIG_VOLTAGE_END = 0x09,
  49:Core/Src/main.c ****     DISPLAY_CONFIG_VOLTAGE_SAMPLES = 0x0a,
  50:Core/Src/main.c ****     DISPLAY_CONFIG_ADC_SAMPLES = 0x0b,
  51:Core/Src/main.c ****     DISPLAY_CONFIG_VOLTAGE_SETTLE_TIME = 0x0c,
  52:Core/Src/main.c ****     DISPLAY_CONFIG_SEND = 0x0d,
  53:Core/Src/main.c ****     DISPLAY_CALIB = 0x0e,
  54:Core/Src/main.c ****     Display_Mode_MAX = 0x0f,
  55:Core/Src/main.c **** } Display_Mode;
  56:Core/Src/main.c **** 
  57:Core/Src/main.c **** /* USER CODE END PTD */
  58:Core/Src/main.c **** 
  59:Core/Src/main.c **** /* Private define ------------------------------------------------------------*/
  60:Core/Src/main.c **** /* USER CODE BEGIN PD */
  61:Core/Src/main.c **** 
  62:Core/Src/main.c **** /* USER CODE END PD */
  63:Core/Src/main.c **** 
  64:Core/Src/main.c **** /* Private macro -------------------------------------------------------------*/
  65:Core/Src/main.c **** /* USER CODE BEGIN PM */
  66:Core/Src/main.c **** 
  67:Core/Src/main.c **** /* USER CODE END PM */
  68:Core/Src/main.c **** 
  69:Core/Src/main.c **** /* Private variables ---------------------------------------------------------*/
  70:Core/Src/main.c **** 
  71:Core/Src/main.c **** /* USER CODE BEGIN PV */
  72:Core/Src/main.c **** const uint16_t digit_masks[] = {DIGIT_1_MASK, DIGIT_2_MASK, DIGIT_3_MASK};
  73:Core/Src/main.c **** const uint8_t number_masks[] = {NUMBER_0_MASK, NUMBER_1_MASK, NUMBER_2_MASK, NUMBER_3_MASK, NUMBER_
  74:Core/Src/main.c **** 
  75:Core/Src/main.c **** const uint32_t display_values[][3] = {
  76:Core/Src/main.c ****     {0, 0, 0}, // unused
  77:Core/Src/main.c ****     {0xffff0000 | DIGIT_1_MASK | LETTER_T_MASK, 0xffff0000 | DIGIT_2_MASK | LETTER_E_MASK, 0xffff00
  78:Core/Src/main.c ****     {0xffff0000 | DIGIT_1_MASK | LETTER_D_MASK, 0xffff0000 | DIGIT_2_MASK | LETTER_E_MASK, 0xffff00
  79:Core/Src/main.c ****     {0xffff0000 | DIGIT_1_MASK | LETTER_R_MASK, 0xffff0000 | DIGIT_2_MASK | LETTER_E_MASK, 0xffff00
  80:Core/Src/main.c ****     {0xffff0000 | DIGIT_1_MASK | LETTER_C_MASK, 0xffff0000 | DIGIT_2_MASK | LETTER_N_MASK, 0xffff00
  81:Core/Src/main.c ****     {0xffff0000 | DIGIT_1_MASK | LETTER_S_MASK, 0xffff0000 | DIGIT_2_MASK | LETTER_A_MASK, 0xffff00
  82:Core/Src/main.c ****     {0xffff0000 | DIGIT_1_MASK | LETTER_E_MASK, 0xffff0000 | DIGIT_2_MASK | LETTER_L_MASK, 0xffff00
  83:Core/Src/main.c ****     {0xffff0000 | DIGIT_1_MASK | LETTER_R_MASK, 0xffff0000 | DIGIT_2_MASK | NUMBER_1_MASK, 0xffff00
  84:Core/Src/main.c ****     {0xffff0000 | DIGIT_1_MASK | LETTER_V_MASK | DECIMAL_POINT, 0xffff0000 | DIGIT_2_MASK | LETTER_
  85:Core/Src/main.c ****     {0xffff0000 | DIGIT_1_MASK | LETTER_V_MASK | DECIMAL_POINT, 0xffff0000 | DIGIT_2_MASK | LETTER_
  86:Core/Src/main.c ****     {0xffff0000 | DIGIT_1_MASK | LETTER_V_MASK | DECIMAL_POINT, 0xffff0000 | DIGIT_2_MASK | LETTER_
  87:Core/Src/main.c ****     {0xffff0000 | DIGIT_1_MASK | LETTER_S_MASK, 0xffff0000 | DIGIT_2_MASK | LETTER_P_MASK, 0xffff00
  88:Core/Src/main.c ****     {0xffff0000 | DIGIT_1_MASK | LETTER_S_MASK, 0xffff0000 | DIGIT_2_MASK | LETTER_T_MASK, 0xffff00
  89:Core/Src/main.c ****     {0xffff0000 | DIGIT_1_MASK | LETTER_C_MASK, 0xffff0000 | DIGIT_2_MASK | LETTER_F_MASK, 0xffff00
  90:Core/Src/main.c ****     {0xffff0000 | DIGIT_1_MASK | LETTER_C_MASK, 0xffff0000 | DIGIT_2_MASK | LETTER_L_MASK, 0xffff00
ARM GAS  /var/folders/rj/9n9dpytj2n74_jwlj_p0xk9m0000gn/T//ccLmj4mt.s 			page 3


  91:Core/Src/main.c **** };
  92:Core/Src/main.c **** const uint32_t display_electrode_type[][3] = {
  93:Core/Src/main.c ****     {0xffff0000 | DIGIT_1_MASK | LETTER_A_MASK, 0xffff0000 | DIGIT_2_MASK | LETTER_U_MASK, 0},
  94:Core/Src/main.c ****     {0xffff0000 | DIGIT_1_MASK | LETTER_T_MASK, 0xffff0000 | DIGIT_2_MASK | LETTER_I_MASK, 0},
  95:Core/Src/main.c ****     {0xffff0000 | DIGIT_1_MASK | LETTER_A_MASK, 0xffff0000 | DIGIT_2_MASK | LETTER_U_MASK, 0xffff00
  96:Core/Src/main.c **** };
  97:Core/Src/main.c **** const uint32_t display_r1_type[][3] = {
  98:Core/Src/main.c ****     {0xffff0000 | DIGIT_1_MASK | NUMBER_1_MASK, 0xffff0000 | DIGIT_2_MASK | LETTER_E_MASK, 0xffff00
  99:Core/Src/main.c ****     {0xffff0000 | DIGIT_1_MASK | NUMBER_1_MASK, 0xffff0000 | DIGIT_2_MASK | LETTER_E_MASK, 0xffff00
 100:Core/Src/main.c ****     {0xffff0000 | DIGIT_1_MASK | NUMBER_1_MASK, 0xffff0000 | DIGIT_2_MASK | LETTER_E_MASK, 0xffff00
 101:Core/Src/main.c **** };
 102:Core/Src/main.c **** 
 103:Core/Src/main.c **** uint16_t voltage_map[330];
 104:Core/Src/main.c **** 
 105:Core/Src/main.c **** uint32_t salinity_dma_buff[] = {0xffff0000 | DIGIT_1_MASK | NEGATIVE_SIGN_MASK, 0xffff0000 | DIGIT_
 106:Core/Src/main.c **** uint32_t depth_dma_buff[] = {0xffff0000 | DIGIT_1_MASK | NEGATIVE_SIGN_MASK, 0xffff0000 | DIGIT_2_M
 107:Core/Src/main.c **** 
 108:Core/Src/main.c **** Display_Mode display_mode = DISPLAY_SALINITY_DEPTH;
 109:Core/Src/main.c **** uint8_t dig1, dig2, dig3;
 110:Core/Src/main.c **** uint32_t last_tick = 0;
 111:Core/Src/main.c **** 
 112:Core/Src/main.c **** RS485_Expecting expecting_response = EXPECTING_NONE;
 113:Core/Src/main.c **** uint8_t rx_buffer[256], rx_buffer_size = 0;
 114:Core/Src/main.c **** uint8_t temperature[DATA_PACKET_SIZE] = {0, 0, 0},
 115:Core/Src/main.c ****         depth[DATA_PACKET_SIZE] = {0, 0, 0},
 116:Core/Src/main.c ****         salinity[DATA_PACKET_SIZE] = {0, 0, 0},
 117:Core/Src/main.c ****         resistance[DATA_PACKET_SIZE] = {0, 0, 0},
 118:Core/Src/main.c ****         conductivity[DATA_PACKET_SIZE] = {0, 0, 0};
 119:Core/Src/main.c **** uint16_t calib_salinity = 35 * 10;
 120:Core/Src/main.c **** uint16_t v_start = 165, v_end = 165;
 121:Core/Src/main.c **** ProbeConfig_TypeDef probe_config = {Au_Shielded, R1_100, BIDIRECTIONAL, 512, 512, 1, 2, STANARD_CON
 122:Core/Src/main.c **** /* USER CODE END PV */
 123:Core/Src/main.c **** 
 124:Core/Src/main.c **** /* Private function prototypes -----------------------------------------------*/
 125:Core/Src/main.c **** void SystemClock_Config(void);
 126:Core/Src/main.c **** static void MX_NVIC_Init(void);
 127:Core/Src/main.c **** /* USER CODE BEGIN PFP */
 128:Core/Src/main.c **** uint8_t get_digit(uint8_t digit_number);
 129:Core/Src/main.c **** int8_t get_change(uint8_t value, uint8_t *prev_val);
 130:Core/Src/main.c **** void update_buffer_with_salinity(uint32_t *buffer, uint16_t salinity);
 131:Core/Src/main.c **** void update_buffer_with_voltage(uint32_t *buffer, uint16_t voltage);
 132:Core/Src/main.c **** void update_buffer_with_int(uint32_t *buffer, uint16_t value);
 133:Core/Src/main.c **** void update_buffer(uint32_t *buffer, uint8_t *data);
 134:Core/Src/main.c **** void rs485_transmit(uint8_t *data, uint16_t size);
 135:Core/Src/main.c **** void rs485_receive_IT(uint16_t size);
 136:Core/Src/main.c **** /* USER CODE END PFP */
 137:Core/Src/main.c **** 
 138:Core/Src/main.c **** /* Private user code ---------------------------------------------------------*/
 139:Core/Src/main.c **** /* USER CODE BEGIN 0 */
 140:Core/Src/main.c **** 
 141:Core/Src/main.c **** /* USER CODE END 0 */
 142:Core/Src/main.c **** 
 143:Core/Src/main.c **** /**
 144:Core/Src/main.c ****  * @brief  The application entry point.
 145:Core/Src/main.c ****  * @retval int
 146:Core/Src/main.c ****  */
 147:Core/Src/main.c **** int main(void)
ARM GAS  /var/folders/rj/9n9dpytj2n74_jwlj_p0xk9m0000gn/T//ccLmj4mt.s 			page 4


 148:Core/Src/main.c **** {
 149:Core/Src/main.c ****     /* USER CODE BEGIN 1 */
 150:Core/Src/main.c ****     for (uint16_t i = 0; i < 330; i++)
 151:Core/Src/main.c ****     {
 152:Core/Src/main.c ****         voltage_map[i] = (i * 1024) / 330 + 1;
 153:Core/Src/main.c ****     }
 154:Core/Src/main.c ****     probe_config.voltage_start = voltage_map[v_start];
 155:Core/Src/main.c ****     probe_config.voltage_end = voltage_map[v_end];
 156:Core/Src/main.c ****     /* USER CODE END 1 */
 157:Core/Src/main.c **** 
 158:Core/Src/main.c ****     /* MCU Configuration--------------------------------------------------------*/
 159:Core/Src/main.c **** 
 160:Core/Src/main.c ****     /* Reset of all peripherals, Initializes the Flash interface and the Systick. */
 161:Core/Src/main.c ****     HAL_Init();
 162:Core/Src/main.c **** 
 163:Core/Src/main.c ****     /* USER CODE BEGIN Init */
 164:Core/Src/main.c **** 
 165:Core/Src/main.c ****     /* USER CODE END Init */
 166:Core/Src/main.c **** 
 167:Core/Src/main.c ****     /* Configure the system clock */
 168:Core/Src/main.c ****     SystemClock_Config();
 169:Core/Src/main.c **** 
 170:Core/Src/main.c ****     /* USER CODE BEGIN SysInit */
 171:Core/Src/main.c **** 
 172:Core/Src/main.c ****     /* USER CODE END SysInit */
 173:Core/Src/main.c **** 
 174:Core/Src/main.c ****     /* Initialize all configured peripherals */
 175:Core/Src/main.c ****     MX_GPIO_Init();
 176:Core/Src/main.c ****     MX_DMA_Init();
 177:Core/Src/main.c ****     MX_SPI2_Init();
 178:Core/Src/main.c ****     MX_USART1_UART_Init();
 179:Core/Src/main.c ****     MX_TIM6_Init();
 180:Core/Src/main.c ****     MX_TIM17_Init();
 181:Core/Src/main.c **** 
 182:Core/Src/main.c ****     /* Initialize interrupts */
 183:Core/Src/main.c ****     MX_NVIC_Init();
 184:Core/Src/main.c ****     /* USER CODE BEGIN 2 */
 185:Core/Src/main.c ****     dig1 = get_digit(1);
 186:Core/Src/main.c ****     dig2 = get_digit(2);
 187:Core/Src/main.c ****     dig3 = get_digit(3);
 188:Core/Src/main.c **** 
 189:Core/Src/main.c ****     HAL_DMA_Start(&hdma_tim6_up, (uint32_t)salinity_dma_buff, (uint32_t) & (GPIO_SALINITY->BSRR), 3
 190:Core/Src/main.c ****     HAL_TIM_Base_Start(&htim6);
 191:Core/Src/main.c ****     __HAL_TIM_ENABLE_DMA(&htim6, TIM_DMA_UPDATE);
 192:Core/Src/main.c **** 
 193:Core/Src/main.c ****     HAL_DMA_Start(&hdma_tim17_ch1_up, (uint32_t)depth_dma_buff, (uint32_t) & (GPIO_DEPTH->BSRR), 3)
 194:Core/Src/main.c ****     HAL_TIM_Base_Start(&htim17);
 195:Core/Src/main.c ****     __HAL_TIM_ENABLE_DMA(&htim17, TIM_DMA_CC1);
 196:Core/Src/main.c **** 
 197:Core/Src/main.c ****     expecting_response = EXPECTING_CONFIG_READY;
 198:Core/Src/main.c ****     uint8_t command[] = {COMMAND_SET_CONFIG};
 199:Core/Src/main.c ****     rs485_transmit(command, 1);
 200:Core/Src/main.c ****     rs485_receive_IT(1);
 201:Core/Src/main.c ****     /* USER CODE END 2 */
 202:Core/Src/main.c **** 
 203:Core/Src/main.c ****     /* Infinite loop */
 204:Core/Src/main.c ****     /* USER CODE BEGIN WHILE */
ARM GAS  /var/folders/rj/9n9dpytj2n74_jwlj_p0xk9m0000gn/T//ccLmj4mt.s 			page 5


 205:Core/Src/main.c ****     while (1)
 206:Core/Src/main.c ****     {
 207:Core/Src/main.c ****         /* USER CODE END WHILE */
 208:Core/Src/main.c **** 
 209:Core/Src/main.c ****         /* USER CODE BEGIN 3 */
 210:Core/Src/main.c ****     }
 211:Core/Src/main.c ****     /* USER CODE END 3 */
 212:Core/Src/main.c **** }
 213:Core/Src/main.c **** 
 214:Core/Src/main.c **** /**
 215:Core/Src/main.c ****  * @brief System Clock Configuration
 216:Core/Src/main.c ****  * @retval None
 217:Core/Src/main.c ****  */
 218:Core/Src/main.c **** void SystemClock_Config(void)
 219:Core/Src/main.c **** {
 220:Core/Src/main.c ****     RCC_OscInitTypeDef RCC_OscInitStruct = {0};
 221:Core/Src/main.c ****     RCC_ClkInitTypeDef RCC_ClkInitStruct = {0};
 222:Core/Src/main.c ****     RCC_PeriphCLKInitTypeDef PeriphClkInit = {0};
 223:Core/Src/main.c **** 
 224:Core/Src/main.c ****     /** Initializes the RCC Oscillators according to the specified parameters
 225:Core/Src/main.c ****      * in the RCC_OscInitTypeDef structure.
 226:Core/Src/main.c ****      */
 227:Core/Src/main.c ****     RCC_OscInitStruct.OscillatorType = RCC_OSCILLATORTYPE_HSI;
 228:Core/Src/main.c ****     RCC_OscInitStruct.HSIState = RCC_HSI_ON;
 229:Core/Src/main.c ****     RCC_OscInitStruct.HSICalibrationValue = RCC_HSICALIBRATION_DEFAULT;
 230:Core/Src/main.c ****     RCC_OscInitStruct.PLL.PLLState = RCC_PLL_NONE;
 231:Core/Src/main.c ****     if (HAL_RCC_OscConfig(&RCC_OscInitStruct) != HAL_OK)
 232:Core/Src/main.c ****     {
 233:Core/Src/main.c ****         Error_Handler();
 234:Core/Src/main.c ****     }
 235:Core/Src/main.c **** 
 236:Core/Src/main.c ****     /** Initializes the CPU, AHB and APB buses clocks
 237:Core/Src/main.c ****      */
 238:Core/Src/main.c ****     RCC_ClkInitStruct.ClockType = RCC_CLOCKTYPE_HCLK | RCC_CLOCKTYPE_SYSCLK | RCC_CLOCKTYPE_PCLK1;
 239:Core/Src/main.c ****     RCC_ClkInitStruct.SYSCLKSource = RCC_SYSCLKSOURCE_HSI;
 240:Core/Src/main.c ****     RCC_ClkInitStruct.AHBCLKDivider = RCC_SYSCLK_DIV1;
 241:Core/Src/main.c ****     RCC_ClkInitStruct.APB1CLKDivider = RCC_HCLK_DIV1;
 242:Core/Src/main.c **** 
 243:Core/Src/main.c ****     if (HAL_RCC_ClockConfig(&RCC_ClkInitStruct, FLASH_LATENCY_0) != HAL_OK)
 244:Core/Src/main.c ****     {
 245:Core/Src/main.c ****         Error_Handler();
 246:Core/Src/main.c ****     }
 247:Core/Src/main.c ****     PeriphClkInit.PeriphClockSelection = RCC_PERIPHCLK_USART1;
 248:Core/Src/main.c ****     PeriphClkInit.Usart1ClockSelection = RCC_USART1CLKSOURCE_PCLK1;
 249:Core/Src/main.c ****     if (HAL_RCCEx_PeriphCLKConfig(&PeriphClkInit) != HAL_OK)
 250:Core/Src/main.c ****     {
 251:Core/Src/main.c ****         Error_Handler();
 252:Core/Src/main.c ****     }
 253:Core/Src/main.c **** }
 254:Core/Src/main.c **** 
 255:Core/Src/main.c **** /**
 256:Core/Src/main.c ****  * @brief NVIC Configuration.
 257:Core/Src/main.c ****  * @retval None
 258:Core/Src/main.c ****  */
 259:Core/Src/main.c **** static void MX_NVIC_Init(void)
 260:Core/Src/main.c **** {
  26              		.loc 1 260 1 view -0
ARM GAS  /var/folders/rj/9n9dpytj2n74_jwlj_p0xk9m0000gn/T//ccLmj4mt.s 			page 6


  27              		.cfi_startproc
  28              		@ args = 0, pretend = 0, frame = 0
  29              		@ frame_needed = 0, uses_anonymous_args = 0
  30 0000 10B5     		push	{r4, lr}
  31              		.cfi_def_cfa_offset 8
  32              		.cfi_offset 4, -8
  33              		.cfi_offset 14, -4
 261:Core/Src/main.c ****     /* TIM6_IRQn interrupt configuration */
 262:Core/Src/main.c ****     HAL_NVIC_SetPriority(TIM6_IRQn, 0, 0);
  34              		.loc 1 262 5 view .LVU1
  35 0002 0022     		movs	r2, #0
  36 0004 0021     		movs	r1, #0
  37 0006 1120     		movs	r0, #17
  38 0008 FFF7FEFF 		bl	HAL_NVIC_SetPriority
  39              	.LVL0:
 263:Core/Src/main.c ****     HAL_NVIC_EnableIRQ(TIM6_IRQn);
  40              		.loc 1 263 5 view .LVU2
  41 000c 1120     		movs	r0, #17
  42 000e FFF7FEFF 		bl	HAL_NVIC_EnableIRQ
  43              	.LVL1:
 264:Core/Src/main.c ****     /* USART1_IRQn interrupt configuration */
 265:Core/Src/main.c ****     HAL_NVIC_SetPriority(USART1_IRQn, 0, 0);
  44              		.loc 1 265 5 view .LVU3
  45 0012 0022     		movs	r2, #0
  46 0014 0021     		movs	r1, #0
  47 0016 1B20     		movs	r0, #27
  48 0018 FFF7FEFF 		bl	HAL_NVIC_SetPriority
  49              	.LVL2:
 266:Core/Src/main.c ****     HAL_NVIC_EnableIRQ(USART1_IRQn);
  50              		.loc 1 266 5 view .LVU4
  51 001c 1B20     		movs	r0, #27
  52 001e FFF7FEFF 		bl	HAL_NVIC_EnableIRQ
  53              	.LVL3:
 267:Core/Src/main.c ****     /* EXTI4_15_IRQn interrupt configuration */
 268:Core/Src/main.c ****     HAL_NVIC_SetPriority(EXTI4_15_IRQn, 3, 0);
  54              		.loc 1 268 5 view .LVU5
  55 0022 0022     		movs	r2, #0
  56 0024 0321     		movs	r1, #3
  57 0026 0720     		movs	r0, #7
  58 0028 FFF7FEFF 		bl	HAL_NVIC_SetPriority
  59              	.LVL4:
 269:Core/Src/main.c ****     HAL_NVIC_EnableIRQ(EXTI4_15_IRQn);
  60              		.loc 1 269 5 view .LVU6
  61 002c 0720     		movs	r0, #7
  62 002e FFF7FEFF 		bl	HAL_NVIC_EnableIRQ
  63              	.LVL5:
 270:Core/Src/main.c **** }
  64              		.loc 1 270 1 is_stmt 0 view .LVU7
  65              		@ sp needed
  66 0032 10BD     		pop	{r4, pc}
  67              		.cfi_endproc
  68              	.LFE45:
  70              		.section	.text.get_digit,"ax",%progbits
  71              		.align	1
  72              		.global	get_digit
  73              		.syntax unified
  74              		.code	16
ARM GAS  /var/folders/rj/9n9dpytj2n74_jwlj_p0xk9m0000gn/T//ccLmj4mt.s 			page 7


  75              		.thumb_func
  77              	get_digit:
  78              	.LVL6:
  79              	.LFB48:
 271:Core/Src/main.c **** 
 272:Core/Src/main.c **** /* USER CODE BEGIN 4 */
 273:Core/Src/main.c **** 
 274:Core/Src/main.c **** void HAL_UART_RxCpltCallback(UART_HandleTypeDef *huart)
 275:Core/Src/main.c **** {
 276:Core/Src/main.c ****     if (huart->Instance == USART1)
 277:Core/Src/main.c ****     {
 278:Core/Src/main.c ****         HAL_GPIO_WritePin(LED_Green_GPIO_Port, LED_Green_Pin, GPIO_PIN_SET);
 279:Core/Src/main.c ****         switch (expecting_response)
 280:Core/Src/main.c ****         {
 281:Core/Src/main.c ****         case EXPECTING_SALINITY_DEPTH:
 282:Core/Src/main.c ****             salinity[0] = rx_buffer[0];
 283:Core/Src/main.c ****             salinity[1] = rx_buffer[1];
 284:Core/Src/main.c ****             salinity[2] = rx_buffer[2];
 285:Core/Src/main.c ****             if (display_mode == DISPLAY_SALINITY_DEPTH)
 286:Core/Src/main.c ****             {
 287:Core/Src/main.c ****                 update_buffer(salinity_dma_buff, salinity);
 288:Core/Src/main.c ****             }
 289:Core/Src/main.c ****             expecting_response = EXPECTING_DEPTH;
 290:Core/Src/main.c ****             uint8_t command[] = {COMMAND_GET_DEPTH};
 291:Core/Src/main.c ****             rs485_transmit(command, 1);
 292:Core/Src/main.c ****             rs485_receive_IT(DATA_PACKET_SIZE);
 293:Core/Src/main.c ****             break;
 294:Core/Src/main.c ****         case EXPECTING_TEMPERATURE:
 295:Core/Src/main.c ****             temperature[0] = rx_buffer[0];
 296:Core/Src/main.c ****             temperature[1] = rx_buffer[1];
 297:Core/Src/main.c ****             temperature[2] = rx_buffer[2];
 298:Core/Src/main.c ****             if (display_mode == DISPLAY_TEMPERATURE)
 299:Core/Src/main.c ****             {
 300:Core/Src/main.c ****                 update_buffer(depth_dma_buff, temperature);
 301:Core/Src/main.c ****             }
 302:Core/Src/main.c ****             break;
 303:Core/Src/main.c ****         case EXPECTING_DEPTH:
 304:Core/Src/main.c ****             depth[0] = rx_buffer[0];
 305:Core/Src/main.c ****             depth[1] = rx_buffer[1];
 306:Core/Src/main.c ****             depth[2] = rx_buffer[2];
 307:Core/Src/main.c ****             if ((display_mode == DISPLAY_DEPTH) || (display_mode == DISPLAY_SALINITY_DEPTH))
 308:Core/Src/main.c ****             {
 309:Core/Src/main.c ****                 update_buffer(depth_dma_buff, depth);
 310:Core/Src/main.c ****             }
 311:Core/Src/main.c ****             break;
 312:Core/Src/main.c ****         case EXPECTING_SALINITY:
 313:Core/Src/main.c ****             salinity[0] = rx_buffer[0];
 314:Core/Src/main.c ****             salinity[1] = rx_buffer[1];
 315:Core/Src/main.c ****             salinity[2] = rx_buffer[2];
 316:Core/Src/main.c ****             if (display_mode == DISPLAY_SALINITY)
 317:Core/Src/main.c ****             {
 318:Core/Src/main.c ****                 update_buffer(depth_dma_buff, salinity);
 319:Core/Src/main.c ****             }
 320:Core/Src/main.c ****             break;
 321:Core/Src/main.c ****         case EXPECTING_CONDUCTIVITY:
 322:Core/Src/main.c ****             conductivity[0] = rx_buffer[0];
 323:Core/Src/main.c ****             conductivity[1] = rx_buffer[1];
ARM GAS  /var/folders/rj/9n9dpytj2n74_jwlj_p0xk9m0000gn/T//ccLmj4mt.s 			page 8


 324:Core/Src/main.c ****             conductivity[2] = rx_buffer[2];
 325:Core/Src/main.c ****             if (display_mode == DISPLAY_CONDUCTIVITY)
 326:Core/Src/main.c ****             {
 327:Core/Src/main.c ****                 update_buffer(depth_dma_buff, conductivity);
 328:Core/Src/main.c ****             }
 329:Core/Src/main.c ****             break;
 330:Core/Src/main.c ****         case EXPECTING_RESISTANCE:
 331:Core/Src/main.c ****             resistance[0] = rx_buffer[0];
 332:Core/Src/main.c ****             resistance[1] = rx_buffer[1];
 333:Core/Src/main.c ****             resistance[2] = rx_buffer[2];
 334:Core/Src/main.c ****             if (display_mode == DISPLAY_RESISTANCE)
 335:Core/Src/main.c ****             {
 336:Core/Src/main.c ****                 update_buffer(depth_dma_buff, resistance);
 337:Core/Src/main.c ****             }
 338:Core/Src/main.c ****             break;
 339:Core/Src/main.c **** 
 340:Core/Src/main.c ****         case EXPECTING_CONFIG_READY:
 341:Core/Src/main.c ****             if (rx_buffer[0] == RESPONSE_ACK)
 342:Core/Src/main.c ****             {
 343:Core/Src/main.c ****                 expecting_response = EXPECTING_ACK;
 344:Core/Src/main.c ****                 rs485_transmit((uint8_t *)&probe_config, CONFIG_PACKET_SIZE);
 345:Core/Src/main.c ****             }
 346:Core/Src/main.c ****             break;
 347:Core/Src/main.c ****         case EXPECTING_CALIB_READY:
 348:Core/Src/main.c ****             if (rx_buffer[0] == RESPONSE_ACK)
 349:Core/Src/main.c ****             {
 350:Core/Src/main.c ****                 expecting_response = EXPECTING_STANARD_CONDUCTIVITY;
 351:Core/Src/main.c ****                 rs485_transmit((uint8_t *)&calib_salinity, 2);
 352:Core/Src/main.c ****                 rs485_receive_IT(sizeof(uint32_t));
 353:Core/Src/main.c ****             }
 354:Core/Src/main.c ****             break;
 355:Core/Src/main.c ****         case EXPECTING_STANARD_CONDUCTIVITY:
 356:Core/Src/main.c ****             uint32_t standard_conductivity = *((uint32_t *)rx_buffer);
 357:Core/Src/main.c ****             probe_config.stardard_conductivity = standard_conductivity;
 358:Core/Src/main.c ****             // write std cnd to sd card.
 359:Core/Src/main.c ****             break;
 360:Core/Src/main.c **** 
 361:Core/Src/main.c ****         case EXPECTING_ACK:
 362:Core/Src/main.c ****             if (rx_buffer[0] == RESPONSE_ACK)
 363:Core/Src/main.c ****             {
 364:Core/Src/main.c ****             }
 365:Core/Src/main.c ****             break;
 366:Core/Src/main.c ****         default:
 367:Core/Src/main.c ****             break;
 368:Core/Src/main.c ****         }
 369:Core/Src/main.c ****     }
 370:Core/Src/main.c **** }
 371:Core/Src/main.c **** 
 372:Core/Src/main.c **** void HAL_GPIO_EXTI_Callback(uint16_t GPIO_Pin)
 373:Core/Src/main.c **** {
 374:Core/Src/main.c ****     uint8_t command[] = {0}, data[] = {0, 0, 0};
 375:Core/Src/main.c ****     int8_t change;
 376:Core/Src/main.c ****     switch (GPIO_Pin)
 377:Core/Src/main.c ****     {
 378:Core/Src/main.c ****     case DIG1_1_Pin:
 379:Core/Src/main.c ****         uint8_t dig = get_digit(1);
 380:Core/Src/main.c ****         change = get_change(dig, &dig1);
ARM GAS  /var/folders/rj/9n9dpytj2n74_jwlj_p0xk9m0000gn/T//ccLmj4mt.s 			page 9


 381:Core/Src/main.c ****         display_mode = (display_mode + change + Display_Mode_MAX) % Display_Mode_MAX;
 382:Core/Src/main.c **** 
 383:Core/Src/main.c ****         salinity_dma_buff[0] = display_values[display_mode][0];
 384:Core/Src/main.c ****         salinity_dma_buff[1] = display_values[display_mode][1];
 385:Core/Src/main.c ****         salinity_dma_buff[2] = display_values[display_mode][2];
 386:Core/Src/main.c **** 
 387:Core/Src/main.c ****         switch (display_mode)
 388:Core/Src/main.c ****         {
 389:Core/Src/main.c ****         case DISPLAY_SALINITY_DEPTH:
 390:Core/Src/main.c ****             update_buffer(salinity_dma_buff, salinity);
 391:Core/Src/main.c ****             update_buffer(depth_dma_buff, depth);
 392:Core/Src/main.c ****             break;
 393:Core/Src/main.c ****         case DISPLAY_TEMPERATURE:
 394:Core/Src/main.c ****             update_buffer(depth_dma_buff, temperature);
 395:Core/Src/main.c ****             break;
 396:Core/Src/main.c ****         case DISPLAY_DEPTH:
 397:Core/Src/main.c ****             update_buffer(depth_dma_buff, depth);
 398:Core/Src/main.c ****             break;
 399:Core/Src/main.c ****         case DISPLAY_SALINITY:
 400:Core/Src/main.c ****             update_buffer(depth_dma_buff, salinity);
 401:Core/Src/main.c ****             break;
 402:Core/Src/main.c ****         case DISPLAY_CONDUCTIVITY:
 403:Core/Src/main.c ****             update_buffer(depth_dma_buff, conductivity);
 404:Core/Src/main.c ****             break;
 405:Core/Src/main.c ****         case DISPLAY_RESISTANCE:
 406:Core/Src/main.c ****             update_buffer(depth_dma_buff, resistance);
 407:Core/Src/main.c ****             break;
 408:Core/Src/main.c ****         case DISPLAY_CONFIG_ELECTRODE:
 409:Core/Src/main.c ****             depth_dma_buff[0] = display_electrode_type[probe_config.electrode][0];
 410:Core/Src/main.c ****             depth_dma_buff[1] = display_electrode_type[probe_config.electrode][1];
 411:Core/Src/main.c ****             depth_dma_buff[2] = display_electrode_type[probe_config.electrode][2];
 412:Core/Src/main.c ****             break;
 413:Core/Src/main.c ****         case DISPLAY_CONFIG_R1:
 414:Core/Src/main.c ****             depth_dma_buff[0] = display_r1_type[probe_config.r1][0];
 415:Core/Src/main.c ****             depth_dma_buff[1] = display_r1_type[probe_config.r1][1];
 416:Core/Src/main.c ****             depth_dma_buff[2] = display_r1_type[probe_config.r1][2];
 417:Core/Src/main.c ****             break;
 418:Core/Src/main.c ****         case DISPLAY_CONFIG_VOLTAGE_START:
 419:Core/Src/main.c ****             update_buffer_with_voltage(depth_dma_buff, probe_config.voltage_start);
 420:Core/Src/main.c ****             break;
 421:Core/Src/main.c ****         case DISPLAY_CONFIG_VOLTAGE_END:
 422:Core/Src/main.c ****             update_buffer_with_voltage(depth_dma_buff, probe_config.voltage_end);
 423:Core/Src/main.c ****             break;
 424:Core/Src/main.c ****         case DISPLAY_CONFIG_VOLTAGE_SAMPLES:
 425:Core/Src/main.c ****             data[0] = probe_config.num_samples / 100;
 426:Core/Src/main.c ****             data[1] = (probe_config.num_samples % 100) / 10;
 427:Core/Src/main.c ****             data[2] = probe_config.num_samples % 10;
 428:Core/Src/main.c ****             update_buffer(depth_dma_buff, data);
 429:Core/Src/main.c ****             break;
 430:Core/Src/main.c ****         case DISPLAY_CONFIG_ADC_SAMPLES:
 431:Core/Src/main.c ****             data[0] = probe_config.adc_samples / 100;
 432:Core/Src/main.c ****             data[1] = (probe_config.adc_samples % 100) / 10;
 433:Core/Src/main.c ****             data[2] = probe_config.adc_samples % 10;
 434:Core/Src/main.c ****             update_buffer(depth_dma_buff, data);
 435:Core/Src/main.c ****             break;
 436:Core/Src/main.c ****         case DISPLAY_CONFIG_SEND:
 437:Core/Src/main.c ****             depth_dma_buff[0] = 0xffff0000 | DIGIT_1_MASK | NEGATIVE_SIGN_MASK;
ARM GAS  /var/folders/rj/9n9dpytj2n74_jwlj_p0xk9m0000gn/T//ccLmj4mt.s 			page 10


 438:Core/Src/main.c ****             depth_dma_buff[1] = 0xffff0000 | DIGIT_2_MASK | NEGATIVE_SIGN_MASK;
 439:Core/Src/main.c ****             depth_dma_buff[2] = 0xffff0000 | DIGIT_3_MASK | NEGATIVE_SIGN_MASK;
 440:Core/Src/main.c ****             break;
 441:Core/Src/main.c ****         case DISPLAY_CALIB:
 442:Core/Src/main.c ****             update_buffer_with_salinity(depth_dma_buff, calib_salinity);
 443:Core/Src/main.c ****             break;
 444:Core/Src/main.c ****         default:
 445:Core/Src/main.c ****             break;
 446:Core/Src/main.c ****         }
 447:Core/Src/main.c ****         break;
 448:Core/Src/main.c ****     case DIG2_1_Pin:
 449:Core/Src/main.c ****         change = get_change(get_digit(2), &dig2);
 450:Core/Src/main.c ****         switch (display_mode)
 451:Core/Src/main.c ****         {
 452:Core/Src/main.c ****         case DISPLAY_CONFIG_ELECTRODE:
 453:Core/Src/main.c ****             probe_config.electrode = (probe_config.electrode + change + Electrode_Type_MAX) % Elect
 454:Core/Src/main.c ****             depth_dma_buff[0] = display_electrode_type[probe_config.electrode][0];
 455:Core/Src/main.c ****             depth_dma_buff[1] = display_electrode_type[probe_config.electrode][1];
 456:Core/Src/main.c ****             depth_dma_buff[2] = display_electrode_type[probe_config.electrode][2];
 457:Core/Src/main.c ****             break;
 458:Core/Src/main.c ****         case DISPLAY_CONFIG_R1:
 459:Core/Src/main.c ****             probe_config.r1 = (probe_config.r1 + change + R1_Type_MAX) % R1_Type_MAX;
 460:Core/Src/main.c ****             depth_dma_buff[0] = display_r1_type[probe_config.r1][0];
 461:Core/Src/main.c ****             depth_dma_buff[1] = display_r1_type[probe_config.r1][1];
 462:Core/Src/main.c ****             depth_dma_buff[2] = display_r1_type[probe_config.r1][2];
 463:Core/Src/main.c ****             break;
 464:Core/Src/main.c ****         case DISPLAY_CONFIG_VOLTAGE_START:
 465:Core/Src/main.c ****             v_start = (v_start + change * 10 + 330) % 330;
 466:Core/Src/main.c ****             probe_config.voltage_start = voltage_map[v_start];
 467:Core/Src/main.c ****             update_buffer_with_voltage(depth_dma_buff, probe_config.voltage_start);
 468:Core/Src/main.c ****             break;
 469:Core/Src/main.c ****         case DISPLAY_CONFIG_VOLTAGE_END:
 470:Core/Src/main.c ****             v_end = (v_end + change * 10 + 330) % 330;
 471:Core/Src/main.c ****             probe_config.voltage_end = voltage_map[v_end];
 472:Core/Src/main.c ****             update_buffer_with_voltage(depth_dma_buff, probe_config.voltage_end);
 473:Core/Src/main.c ****             break;
 474:Core/Src/main.c ****         case DISPLAY_CONFIG_VOLTAGE_SAMPLES:
 475:Core/Src/main.c ****             probe_config.num_samples = (probe_config.num_samples + change * 10) % 1000;
 476:Core/Src/main.c ****             update_buffer_with_int(depth_dma_buff, probe_config.num_samples);
 477:Core/Src/main.c ****             break;
 478:Core/Src/main.c ****         case DISPLAY_CONFIG_ADC_SAMPLES:
 479:Core/Src/main.c ****             probe_config.adc_samples = (probe_config.adc_samples + change * 10) % 1000;
 480:Core/Src/main.c ****             update_buffer_with_int(depth_dma_buff, probe_config.adc_samples);
 481:Core/Src/main.c ****             break;
 482:Core/Src/main.c ****         case DISPLAY_CONFIG_VOLTAGE_SETTLE_TIME:
 483:Core/Src/main.c ****             probe_config.voltage_settle_time = (probe_config.voltage_settle_time + change * 10) % 1
 484:Core/Src/main.c ****             update_buffer_with_int(depth_dma_buff, probe_config.voltage_settle_time);
 485:Core/Src/main.c ****         case DISPLAY_CALIB:
 486:Core/Src/main.c ****             calib_salinity = (calib_salinity + change * 10) % 1000;
 487:Core/Src/main.c ****             update_buffer_with_salinity(depth_dma_buff, calib_salinity);
 488:Core/Src/main.c ****         default:
 489:Core/Src/main.c ****             break;
 490:Core/Src/main.c ****         }
 491:Core/Src/main.c ****         break;
 492:Core/Src/main.c ****     case DIG3_1_Pin:
 493:Core/Src/main.c ****         change = get_change(get_digit(3), &dig3);
 494:Core/Src/main.c ****         switch (display_mode)
ARM GAS  /var/folders/rj/9n9dpytj2n74_jwlj_p0xk9m0000gn/T//ccLmj4mt.s 			page 11


 495:Core/Src/main.c ****         {
 496:Core/Src/main.c ****         case DISPLAY_CONFIG_VOLTAGE_START:
 497:Core/Src/main.c ****             v_start = (v_start + change + 330) % 330;
 498:Core/Src/main.c ****             probe_config.voltage_start = voltage_map[v_start];
 499:Core/Src/main.c ****             update_buffer_with_voltage(depth_dma_buff, probe_config.voltage_start);
 500:Core/Src/main.c ****             break;
 501:Core/Src/main.c ****         case DISPLAY_CONFIG_VOLTAGE_END:
 502:Core/Src/main.c ****             v_end = (v_end + change + 330) % 330;
 503:Core/Src/main.c ****             probe_config.voltage_end = voltage_map[v_end];
 504:Core/Src/main.c ****             update_buffer_with_voltage(depth_dma_buff, probe_config.voltage_end);
 505:Core/Src/main.c ****             break;
 506:Core/Src/main.c ****         case DISPLAY_CONFIG_VOLTAGE_SAMPLES:
 507:Core/Src/main.c ****             probe_config.num_samples = (probe_config.num_samples + change) % 1000;
 508:Core/Src/main.c ****             update_buffer_with_int(depth_dma_buff, probe_config.num_samples);
 509:Core/Src/main.c ****             break;
 510:Core/Src/main.c ****         case DISPLAY_CONFIG_ADC_SAMPLES:
 511:Core/Src/main.c ****             probe_config.adc_samples = (probe_config.adc_samples + change) % 1000;
 512:Core/Src/main.c ****             update_buffer_with_int(depth_dma_buff, probe_config.adc_samples);
 513:Core/Src/main.c ****             break;
 514:Core/Src/main.c ****         case DISPLAY_CONFIG_VOLTAGE_SETTLE_TIME:
 515:Core/Src/main.c ****             probe_config.voltage_settle_time = (probe_config.voltage_settle_time + change) % 1000;
 516:Core/Src/main.c ****             update_buffer_with_int(depth_dma_buff, probe_config.voltage_settle_time);
 517:Core/Src/main.c ****         case DISPLAY_CALIB:
 518:Core/Src/main.c ****             calib_salinity = (calib_salinity + change) % 1000;
 519:Core/Src/main.c ****             update_buffer_with_salinity(depth_dma_buff, calib_salinity);
 520:Core/Src/main.c ****         default:
 521:Core/Src/main.c ****             break;
 522:Core/Src/main.c ****         }
 523:Core/Src/main.c ****         break;
 524:Core/Src/main.c ****     case SW1_Pin:
 525:Core/Src/main.c ****         // if (expecting_response != EXPECTING_NONE)
 526:Core/Src/main.c ****         // {
 527:Core/Src/main.c ****         //     return;
 528:Core/Src/main.c ****         // }
 529:Core/Src/main.c ****         switch (display_mode)
 530:Core/Src/main.c ****         {
 531:Core/Src/main.c ****         case DISPLAY_SALINITY_DEPTH:
 532:Core/Src/main.c ****             expecting_response = EXPECTING_SALINITY_DEPTH;
 533:Core/Src/main.c ****             command[0] = COMMAND_GET_SALINITY;
 534:Core/Src/main.c ****             rs485_transmit(command, 1);
 535:Core/Src/main.c ****             rs485_receive_IT(DATA_PACKET_SIZE);
 536:Core/Src/main.c ****             break;
 537:Core/Src/main.c ****         case DISPLAY_TEMPERATURE:
 538:Core/Src/main.c ****             expecting_response = EXPECTING_TEMPERATURE;
 539:Core/Src/main.c ****             command[0] = COMMAND_GET_TEMPERATURE;
 540:Core/Src/main.c ****             rs485_transmit(command, 1);
 541:Core/Src/main.c ****             rs485_receive_IT(DATA_PACKET_SIZE);
 542:Core/Src/main.c ****             break;
 543:Core/Src/main.c ****         case DISPLAY_DEPTH:
 544:Core/Src/main.c ****             expecting_response = EXPECTING_DEPTH;
 545:Core/Src/main.c ****             command[0] = COMMAND_GET_DEPTH;
 546:Core/Src/main.c ****             rs485_transmit(command, 1);
 547:Core/Src/main.c ****             rs485_receive_IT(DATA_PACKET_SIZE);
 548:Core/Src/main.c ****             break;
 549:Core/Src/main.c ****         case DISPLAY_SALINITY:
 550:Core/Src/main.c ****             expecting_response = EXPECTING_SALINITY;
 551:Core/Src/main.c ****             command[0] = COMMAND_GET_SALINITY;
ARM GAS  /var/folders/rj/9n9dpytj2n74_jwlj_p0xk9m0000gn/T//ccLmj4mt.s 			page 12


 552:Core/Src/main.c ****             rs485_transmit(command, 1);
 553:Core/Src/main.c ****             rs485_receive_IT(DATA_PACKET_SIZE);
 554:Core/Src/main.c ****             break;
 555:Core/Src/main.c ****         case DISPLAY_CONDUCTIVITY:
 556:Core/Src/main.c ****             expecting_response = EXPECTING_CONDUCTIVITY;
 557:Core/Src/main.c ****             command[0] = COMMAND_GET_CONDUCTIVITY;
 558:Core/Src/main.c ****             rs485_transmit(command, 1);
 559:Core/Src/main.c ****             rs485_receive_IT(DATA_PACKET_SIZE);
 560:Core/Src/main.c ****             break;
 561:Core/Src/main.c ****         case DISPLAY_RESISTANCE:
 562:Core/Src/main.c ****             expecting_response = EXPECTING_RESISTANCE;
 563:Core/Src/main.c ****             command[0] = COMMAND_GET_RESISTANCE;
 564:Core/Src/main.c ****             rs485_transmit(command, 1);
 565:Core/Src/main.c ****             rs485_receive_IT(DATA_PACKET_SIZE);
 566:Core/Src/main.c ****             break;
 567:Core/Src/main.c **** 
 568:Core/Src/main.c ****         case DISPLAY_CONFIG_ELECTRODE:
 569:Core/Src/main.c ****         case DISPLAY_CONFIG_R1:
 570:Core/Src/main.c ****         case DISPLAY_CONFIG_VOLTAGE_START:
 571:Core/Src/main.c ****         case DISPLAY_CONFIG_VOLTAGE_END:
 572:Core/Src/main.c ****         case DISPLAY_CONFIG_VOLTAGE_SAMPLES:
 573:Core/Src/main.c ****         case DISPLAY_CONFIG_ADC_SAMPLES:
 574:Core/Src/main.c ****         case DISPLAY_CONFIG_SEND:
 575:Core/Src/main.c ****             expecting_response = EXPECTING_CONFIG_READY;
 576:Core/Src/main.c ****             command[0] = COMMAND_SET_CONFIG;
 577:Core/Src/main.c ****             rs485_transmit(command, 1);
 578:Core/Src/main.c ****             rs485_receive_IT(1);
 579:Core/Src/main.c ****             break;
 580:Core/Src/main.c ****         case DISPLAY_CALIB:
 581:Core/Src/main.c ****             expecting_response = EXPECTING_CALIB_READY;
 582:Core/Src/main.c ****             command[0] = COMMAND_CALIBRATE;
 583:Core/Src/main.c ****             rs485_transmit(command, 1);
 584:Core/Src/main.c ****             rs485_receive_IT(1);
 585:Core/Src/main.c ****             break;
 586:Core/Src/main.c ****         default:
 587:Core/Src/main.c ****             break;
 588:Core/Src/main.c ****         }
 589:Core/Src/main.c ****         break;
 590:Core/Src/main.c ****     case SW2_Pin:
 591:Core/Src/main.c ****         command[0] = COMMAND_RESET;
 592:Core/Src/main.c ****         rs485_transmit(command, 1);
 593:Core/Src/main.c ****         HAL_NVIC_SystemReset();
 594:Core/Src/main.c ****         break;
 595:Core/Src/main.c ****     default:
 596:Core/Src/main.c ****         break;
 597:Core/Src/main.c ****     }
 598:Core/Src/main.c **** }
 599:Core/Src/main.c **** 
 600:Core/Src/main.c **** uint8_t get_digit(uint8_t digit_number)
 601:Core/Src/main.c **** {
  80              		.loc 1 601 1 is_stmt 1 view -0
  81              		.cfi_startproc
  82              		@ args = 0, pretend = 0, frame = 0
  83              		@ frame_needed = 0, uses_anonymous_args = 0
  84              		.loc 1 601 1 is_stmt 0 view .LVU9
  85 0000 70B5     		push	{r4, r5, r6, lr}
  86              		.cfi_def_cfa_offset 16
ARM GAS  /var/folders/rj/9n9dpytj2n74_jwlj_p0xk9m0000gn/T//ccLmj4mt.s 			page 13


  87              		.cfi_offset 4, -16
  88              		.cfi_offset 5, -12
  89              		.cfi_offset 6, -8
  90              		.cfi_offset 14, -4
  91 0002 0400     		movs	r4, r0
 602:Core/Src/main.c ****     HAL_Delay(10);
  92              		.loc 1 602 5 is_stmt 1 view .LVU10
  93 0004 0A20     		movs	r0, #10
  94              	.LVL7:
  95              		.loc 1 602 5 is_stmt 0 view .LVU11
  96 0006 FFF7FEFF 		bl	HAL_Delay
  97              	.LVL8:
 603:Core/Src/main.c ****     switch (digit_number)
  98              		.loc 1 603 5 is_stmt 1 view .LVU12
  99 000a 022C     		cmp	r4, #2
 100 000c 1FD0     		beq	.L3
 101 000e 032C     		cmp	r4, #3
 102 0010 3DD0     		beq	.L4
 103 0012 012C     		cmp	r4, #1
 104 0014 57D1     		bne	.L6
 604:Core/Src/main.c ****     {
 605:Core/Src/main.c ****     case 1:
 606:Core/Src/main.c ****         return (HAL_GPIO_ReadPin(DIG1_8_GPIO_Port, DIG1_8_Pin) << 3) |
 105              		.loc 1 606 9 view .LVU13
 106              		.loc 1 606 17 is_stmt 0 view .LVU14
 107 0016 2D4D     		ldr	r5, .L7
 108 0018 0221     		movs	r1, #2
 109 001a 2800     		movs	r0, r5
 110 001c FFF7FEFF 		bl	HAL_GPIO_ReadPin
 111              	.LVL9:
 112 0020 0400     		movs	r4, r0
 113              	.LVL10:
 607:Core/Src/main.c ****                (HAL_GPIO_ReadPin(DIG1_4_GPIO_Port, DIG1_4_Pin) << 2) |
 114              		.loc 1 607 17 view .LVU15
 115 0022 0121     		movs	r1, #1
 116 0024 2800     		movs	r0, r5
 117 0026 FFF7FEFF 		bl	HAL_GPIO_ReadPin
 118              	.LVL11:
 606:Core/Src/main.c ****                (HAL_GPIO_ReadPin(DIG1_4_GPIO_Port, DIG1_4_Pin) << 2) |
 119              		.loc 1 606 70 discriminator 1 view .LVU16
 120 002a E400     		lsls	r4, r4, #3
 606:Core/Src/main.c ****                (HAL_GPIO_ReadPin(DIG1_4_GPIO_Port, DIG1_4_Pin) << 2) |
 121              		.loc 1 606 70 view .LVU17
 122 002c 8000     		lsls	r0, r0, #2
 123 002e 0443     		orrs	r4, r0
 124 0030 64B2     		sxtb	r4, r4
 608:Core/Src/main.c ****                (HAL_GPIO_ReadPin(DIG1_2_GPIO_Port, DIG1_2_Pin) << 1) |
 125              		.loc 1 608 17 view .LVU18
 126 0032 0821     		movs	r1, #8
 127 0034 2800     		movs	r0, r5
 128 0036 FFF7FEFF 		bl	HAL_GPIO_ReadPin
 129              	.LVL12:
 607:Core/Src/main.c ****                (HAL_GPIO_ReadPin(DIG1_4_GPIO_Port, DIG1_4_Pin) << 2) |
 130              		.loc 1 607 70 view .LVU19
 131 003a 4000     		lsls	r0, r0, #1
 132 003c 0443     		orrs	r4, r0
 133 003e 64B2     		sxtb	r4, r4
ARM GAS  /var/folders/rj/9n9dpytj2n74_jwlj_p0xk9m0000gn/T//ccLmj4mt.s 			page 14


 609:Core/Src/main.c ****                HAL_GPIO_ReadPin(DIG1_1_GPIO_Port, DIG1_1_Pin);
 134              		.loc 1 609 16 view .LVU20
 135 0040 0421     		movs	r1, #4
 136 0042 2800     		movs	r0, r5
 137 0044 FFF7FEFF 		bl	HAL_GPIO_ReadPin
 138              	.LVL13:
 608:Core/Src/main.c ****                (HAL_GPIO_ReadPin(DIG1_2_GPIO_Port, DIG1_2_Pin) << 1) |
 139              		.loc 1 608 70 view .LVU21
 140 0048 2043     		orrs	r0, r4
 141 004a C0B2     		uxtb	r0, r0
 142              	.L5:
 610:Core/Src/main.c ****     case 2:
 611:Core/Src/main.c ****         return (HAL_GPIO_ReadPin(DIG2_8_GPIO_Port, DIG2_8_Pin) << 3) |
 612:Core/Src/main.c ****                (HAL_GPIO_ReadPin(DIG2_4_GPIO_Port, DIG2_4_Pin) << 2) |
 613:Core/Src/main.c ****                (HAL_GPIO_ReadPin(DIG2_2_GPIO_Port, DIG2_2_Pin) << 1) |
 614:Core/Src/main.c ****                HAL_GPIO_ReadPin(DIG2_1_GPIO_Port, DIG2_1_Pin);
 615:Core/Src/main.c ****     case 3:
 616:Core/Src/main.c ****         return (HAL_GPIO_ReadPin(DIG3_8_GPIO_Port, DIG3_8_Pin) << 3) |
 617:Core/Src/main.c ****                (HAL_GPIO_ReadPin(DIG3_4_GPIO_Port, DIG3_4_Pin) << 2) |
 618:Core/Src/main.c ****                (HAL_GPIO_ReadPin(DIG3_2_GPIO_Port, DIG3_2_Pin) << 1) |
 619:Core/Src/main.c ****                HAL_GPIO_ReadPin(DIG3_1_GPIO_Port, DIG3_1_Pin);
 620:Core/Src/main.c ****     default:
 621:Core/Src/main.c ****         return 0;
 622:Core/Src/main.c ****     }
 623:Core/Src/main.c **** }
 143              		.loc 1 623 1 view .LVU22
 144              		@ sp needed
 145 004c 70BD     		pop	{r4, r5, r6, pc}
 146              	.L3:
 611:Core/Src/main.c ****                (HAL_GPIO_ReadPin(DIG2_4_GPIO_Port, DIG2_4_Pin) << 2) |
 147              		.loc 1 611 9 is_stmt 1 view .LVU23
 611:Core/Src/main.c ****                (HAL_GPIO_ReadPin(DIG2_4_GPIO_Port, DIG2_4_Pin) << 2) |
 148              		.loc 1 611 17 is_stmt 0 view .LVU24
 149 004e 8021     		movs	r1, #128
 150 0050 1E4D     		ldr	r5, .L7
 151 0052 8900     		lsls	r1, r1, #2
 152 0054 2800     		movs	r0, r5
 153 0056 FFF7FEFF 		bl	HAL_GPIO_ReadPin
 154              	.LVL14:
 155 005a 0400     		movs	r4, r0
 612:Core/Src/main.c ****                (HAL_GPIO_ReadPin(DIG2_2_GPIO_Port, DIG2_2_Pin) << 1) |
 156              		.loc 1 612 17 view .LVU25
 157 005c 8021     		movs	r1, #128
 158 005e 4900     		lsls	r1, r1, #1
 159 0060 2800     		movs	r0, r5
 160 0062 FFF7FEFF 		bl	HAL_GPIO_ReadPin
 161              	.LVL15:
 611:Core/Src/main.c ****                (HAL_GPIO_ReadPin(DIG2_4_GPIO_Port, DIG2_4_Pin) << 2) |
 162              		.loc 1 611 70 discriminator 1 view .LVU26
 163 0066 E400     		lsls	r4, r4, #3
 611:Core/Src/main.c ****                (HAL_GPIO_ReadPin(DIG2_4_GPIO_Port, DIG2_4_Pin) << 2) |
 164              		.loc 1 611 70 view .LVU27
 165 0068 8000     		lsls	r0, r0, #2
 166 006a 0443     		orrs	r4, r0
 167 006c 64B2     		sxtb	r4, r4
 613:Core/Src/main.c ****                HAL_GPIO_ReadPin(DIG2_1_GPIO_Port, DIG2_1_Pin);
 168              		.loc 1 613 17 view .LVU28
ARM GAS  /var/folders/rj/9n9dpytj2n74_jwlj_p0xk9m0000gn/T//ccLmj4mt.s 			page 15


 169 006e 8021     		movs	r1, #128
 170 0070 0901     		lsls	r1, r1, #4
 171 0072 2800     		movs	r0, r5
 172 0074 FFF7FEFF 		bl	HAL_GPIO_ReadPin
 173              	.LVL16:
 612:Core/Src/main.c ****                (HAL_GPIO_ReadPin(DIG2_2_GPIO_Port, DIG2_2_Pin) << 1) |
 174              		.loc 1 612 70 view .LVU29
 175 0078 4000     		lsls	r0, r0, #1
 176 007a 0443     		orrs	r4, r0
 177 007c 64B2     		sxtb	r4, r4
 614:Core/Src/main.c ****     case 3:
 178              		.loc 1 614 16 view .LVU30
 179 007e 8021     		movs	r1, #128
 180 0080 C900     		lsls	r1, r1, #3
 181 0082 2800     		movs	r0, r5
 182 0084 FFF7FEFF 		bl	HAL_GPIO_ReadPin
 183              	.LVL17:
 613:Core/Src/main.c ****                HAL_GPIO_ReadPin(DIG2_1_GPIO_Port, DIG2_1_Pin);
 184              		.loc 1 613 70 view .LVU31
 185 0088 2043     		orrs	r0, r4
 186 008a C0B2     		uxtb	r0, r0
 187 008c DEE7     		b	.L5
 188              	.L4:
 616:Core/Src/main.c ****                (HAL_GPIO_ReadPin(DIG3_4_GPIO_Port, DIG3_4_Pin) << 2) |
 189              		.loc 1 616 9 is_stmt 1 view .LVU32
 616:Core/Src/main.c ****                (HAL_GPIO_ReadPin(DIG3_4_GPIO_Port, DIG3_4_Pin) << 2) |
 190              		.loc 1 616 17 is_stmt 0 view .LVU33
 191 008e 104D     		ldr	r5, .L7+4
 192 0090 2021     		movs	r1, #32
 193 0092 2800     		movs	r0, r5
 194 0094 FFF7FEFF 		bl	HAL_GPIO_ReadPin
 195              	.LVL18:
 196 0098 0400     		movs	r4, r0
 617:Core/Src/main.c ****                (HAL_GPIO_ReadPin(DIG3_2_GPIO_Port, DIG3_2_Pin) << 1) |
 197              		.loc 1 617 17 view .LVU34
 198 009a 1021     		movs	r1, #16
 199 009c 2800     		movs	r0, r5
 200 009e FFF7FEFF 		bl	HAL_GPIO_ReadPin
 201              	.LVL19:
 616:Core/Src/main.c ****                (HAL_GPIO_ReadPin(DIG3_4_GPIO_Port, DIG3_4_Pin) << 2) |
 202              		.loc 1 616 70 discriminator 1 view .LVU35
 203 00a2 E400     		lsls	r4, r4, #3
 616:Core/Src/main.c ****                (HAL_GPIO_ReadPin(DIG3_4_GPIO_Port, DIG3_4_Pin) << 2) |
 204              		.loc 1 616 70 view .LVU36
 205 00a4 8000     		lsls	r0, r0, #2
 206 00a6 0443     		orrs	r4, r0
 207 00a8 64B2     		sxtb	r4, r4
 618:Core/Src/main.c ****                HAL_GPIO_ReadPin(DIG3_1_GPIO_Port, DIG3_1_Pin);
 208              		.loc 1 618 17 view .LVU37
 209 00aa 8021     		movs	r1, #128
 210 00ac 2800     		movs	r0, r5
 211 00ae FFF7FEFF 		bl	HAL_GPIO_ReadPin
 212              	.LVL20:
 617:Core/Src/main.c ****                (HAL_GPIO_ReadPin(DIG3_2_GPIO_Port, DIG3_2_Pin) << 1) |
 213              		.loc 1 617 70 view .LVU38
 214 00b2 4000     		lsls	r0, r0, #1
 215 00b4 0443     		orrs	r4, r0
ARM GAS  /var/folders/rj/9n9dpytj2n74_jwlj_p0xk9m0000gn/T//ccLmj4mt.s 			page 16


 216 00b6 64B2     		sxtb	r4, r4
 619:Core/Src/main.c ****     default:
 217              		.loc 1 619 16 view .LVU39
 218 00b8 4021     		movs	r1, #64
 219 00ba 2800     		movs	r0, r5
 220 00bc FFF7FEFF 		bl	HAL_GPIO_ReadPin
 221              	.LVL21:
 618:Core/Src/main.c ****                HAL_GPIO_ReadPin(DIG3_1_GPIO_Port, DIG3_1_Pin);
 222              		.loc 1 618 70 view .LVU40
 223 00c0 2043     		orrs	r0, r4
 224 00c2 C0B2     		uxtb	r0, r0
 225 00c4 C2E7     		b	.L5
 226              	.L6:
 603:Core/Src/main.c ****     {
 227              		.loc 1 603 5 view .LVU41
 228 00c6 0020     		movs	r0, #0
 229 00c8 C0E7     		b	.L5
 230              	.L8:
 231 00ca C046     		.align	2
 232              	.L7:
 233 00cc 00040048 		.word	1207960576
 234 00d0 00140048 		.word	1207964672
 235              		.cfi_endproc
 236              	.LFE48:
 238              		.global	__aeabi_idivmod
 239              		.section	.text.get_change,"ax",%progbits
 240              		.align	1
 241              		.global	get_change
 242              		.syntax unified
 243              		.code	16
 244              		.thumb_func
 246              	get_change:
 247              	.LVL22:
 248              	.LFB49:
 624:Core/Src/main.c **** 
 625:Core/Src/main.c **** int8_t get_change(uint8_t value, uint8_t *prev_val)
 626:Core/Src/main.c **** {
 249              		.loc 1 626 1 is_stmt 1 view -0
 250              		.cfi_startproc
 251              		@ args = 0, pretend = 0, frame = 0
 252              		@ frame_needed = 0, uses_anonymous_args = 0
 253              		.loc 1 626 1 is_stmt 0 view .LVU43
 254 0000 70B5     		push	{r4, r5, r6, lr}
 255              		.cfi_def_cfa_offset 16
 256              		.cfi_offset 4, -16
 257              		.cfi_offset 5, -12
 258              		.cfi_offset 6, -8
 259              		.cfi_offset 14, -4
 260 0002 0400     		movs	r4, r0
 261 0004 0D00     		movs	r5, r1
 627:Core/Src/main.c ****     int8_t change;
 262              		.loc 1 627 5 is_stmt 1 view .LVU44
 628:Core/Src/main.c ****     if ((value + 1) % 10 == *prev_val)
 263              		.loc 1 628 5 view .LVU45
 264              		.loc 1 628 16 is_stmt 0 view .LVU46
 265 0006 0130     		adds	r0, r0, #1
 266              	.LVL23:
ARM GAS  /var/folders/rj/9n9dpytj2n74_jwlj_p0xk9m0000gn/T//ccLmj4mt.s 			page 17


 267              		.loc 1 628 21 view .LVU47
 268 0008 0A21     		movs	r1, #10
 269              	.LVL24:
 270              		.loc 1 628 21 view .LVU48
 271 000a FFF7FEFF 		bl	__aeabi_idivmod
 272              	.LVL25:
 273              		.loc 1 628 29 view .LVU49
 274 000e 2E78     		ldrb	r6, [r5]
 275              		.loc 1 628 8 view .LVU50
 276 0010 B142     		cmp	r1, r6
 277 0012 0BD0     		beq	.L11
 629:Core/Src/main.c ****     {
 630:Core/Src/main.c ****         change = -1;
 631:Core/Src/main.c ****     }
 632:Core/Src/main.c ****     else if ((value + 9) % 10 == *prev_val)
 278              		.loc 1 632 10 is_stmt 1 view .LVU51
 279              		.loc 1 632 26 is_stmt 0 view .LVU52
 280 0014 0A21     		movs	r1, #10
 281 0016 2000     		movs	r0, r4
 282 0018 0930     		adds	r0, r0, #9
 283 001a FFF7FEFF 		bl	__aeabi_idivmod
 284              	.LVL26:
 285              		.loc 1 632 13 view .LVU53
 286 001e 8E42     		cmp	r6, r1
 287 0020 02D0     		beq	.L13
 633:Core/Src/main.c ****     {
 634:Core/Src/main.c ****         change = +1;
 635:Core/Src/main.c ****     }
 636:Core/Src/main.c ****     else
 637:Core/Src/main.c ****     {
 638:Core/Src/main.c ****         change = 0;
 288              		.loc 1 638 16 view .LVU54
 289 0022 0020     		movs	r0, #0
 290              	.L10:
 291              	.LVL27:
 639:Core/Src/main.c ****     }
 640:Core/Src/main.c ****     *prev_val = value;
 292              		.loc 1 640 5 is_stmt 1 view .LVU55
 293              		.loc 1 640 15 is_stmt 0 view .LVU56
 294 0024 2C70     		strb	r4, [r5]
 641:Core/Src/main.c ****     return change;
 295              		.loc 1 641 5 is_stmt 1 view .LVU57
 642:Core/Src/main.c **** }
 296              		.loc 1 642 1 is_stmt 0 view .LVU58
 297              		@ sp needed
 298              	.LVL28:
 299              	.LVL29:
 300              		.loc 1 642 1 view .LVU59
 301 0026 70BD     		pop	{r4, r5, r6, pc}
 302              	.LVL30:
 303              	.L13:
 634:Core/Src/main.c ****     }
 304              		.loc 1 634 16 view .LVU60
 305 0028 0120     		movs	r0, #1
 306 002a FBE7     		b	.L10
 307              	.L11:
 630:Core/Src/main.c ****     }
ARM GAS  /var/folders/rj/9n9dpytj2n74_jwlj_p0xk9m0000gn/T//ccLmj4mt.s 			page 18


 308              		.loc 1 630 16 view .LVU61
 309 002c 0120     		movs	r0, #1
 310 002e 4042     		rsbs	r0, r0, #0
 311 0030 F8E7     		b	.L10
 312              		.cfi_endproc
 313              	.LFE49:
 315              		.section	.text.update_buffer,"ax",%progbits
 316              		.align	1
 317              		.global	update_buffer
 318              		.syntax unified
 319              		.code	16
 320              		.thumb_func
 322              	update_buffer:
 323              	.LVL31:
 324              	.LFB53:
 643:Core/Src/main.c **** 
 644:Core/Src/main.c **** void update_buffer_with_salinity(uint32_t *buffer, uint16_t salinity)
 645:Core/Src/main.c **** {
 646:Core/Src/main.c ****     // salinity is x10
 647:Core/Src/main.c ****     uint8_t data[3] = {0, 0, 0};
 648:Core/Src/main.c ****     data[0] = salinity / 100;
 649:Core/Src/main.c ****     data[1] = ((salinity % 100) / 10) | DECIMAL_POINT;
 650:Core/Src/main.c ****     data[2] = salinity % 10;
 651:Core/Src/main.c ****     update_buffer(buffer, data);
 652:Core/Src/main.c **** }
 653:Core/Src/main.c **** 
 654:Core/Src/main.c **** void update_buffer_with_voltage(uint32_t *buffer, uint16_t voltage)
 655:Core/Src/main.c **** {
 656:Core/Src/main.c ****     // voltage is 10 bit
 657:Core/Src/main.c ****     uint8_t data[3] = {0, 0, 0};
 658:Core/Src/main.c ****     voltage = (voltage * 330) / 1024;
 659:Core/Src/main.c ****     data[0] = voltage / 100 | DECIMAL_POINT;
 660:Core/Src/main.c ****     data[1] = (voltage % 100) / 10;
 661:Core/Src/main.c ****     data[2] = voltage % 10;
 662:Core/Src/main.c ****     update_buffer(buffer, data);
 663:Core/Src/main.c **** }
 664:Core/Src/main.c **** 
 665:Core/Src/main.c **** void update_buffer_with_int(uint32_t *buffer, uint16_t value)
 666:Core/Src/main.c **** {
 667:Core/Src/main.c ****     uint8_t data[3] = {0, 0, 0};
 668:Core/Src/main.c ****     data[0] = value / 100;
 669:Core/Src/main.c ****     data[1] = (value % 100) / 10;
 670:Core/Src/main.c ****     data[2] = value % 10;
 671:Core/Src/main.c ****     update_buffer(buffer, data);
 672:Core/Src/main.c **** }
 673:Core/Src/main.c **** 
 674:Core/Src/main.c **** void update_buffer(uint32_t *buffer, uint8_t *data)
 675:Core/Src/main.c **** {
 325              		.loc 1 675 1 is_stmt 1 view -0
 326              		.cfi_startproc
 327              		@ args = 0, pretend = 0, frame = 0
 328              		@ frame_needed = 0, uses_anonymous_args = 0
 329              		.loc 1 675 1 is_stmt 0 view .LVU63
 330 0000 70B5     		push	{r4, r5, r6, lr}
 331              		.cfi_def_cfa_offset 16
 332              		.cfi_offset 4, -16
 333              		.cfi_offset 5, -12
ARM GAS  /var/folders/rj/9n9dpytj2n74_jwlj_p0xk9m0000gn/T//ccLmj4mt.s 			page 19


 334              		.cfi_offset 6, -8
 335              		.cfi_offset 14, -4
 676:Core/Src/main.c ****     for (uint8_t i = 0; i < DATA_PACKET_SIZE; i++)
 336              		.loc 1 676 5 is_stmt 1 view .LVU64
 337              	.LBB4:
 338              		.loc 1 676 10 view .LVU65
 339              	.LVL32:
 340              		.loc 1 676 18 is_stmt 0 view .LVU66
 341 0002 0023     		movs	r3, #0
 342              		.loc 1 676 5 view .LVU67
 343 0004 14E0     		b	.L15
 344              	.LVL33:
 345              	.L16:
 677:Core/Src/main.c ****     {
 678:Core/Src/main.c ****         if (data[i] & NEGATIVE_SIGN)
 679:Core/Src/main.c ****         {
 680:Core/Src/main.c ****             buffer[i] = (0xffff << 16) | digit_masks[i] | NEGATIVE_SIGN_MASK;
 681:Core/Src/main.c ****         }
 682:Core/Src/main.c ****         else
 683:Core/Src/main.c ****         {
 684:Core/Src/main.c ****             buffer[i] = (0xffff << 16) | digit_masks[i] | number_masks[data[i] & 0x0f];
 346              		.loc 1 684 13 is_stmt 1 view .LVU68
 347              		.loc 1 684 53 is_stmt 0 view .LVU69
 348 0006 124A     		ldr	r2, .L21
 349 0008 5D00     		lsls	r5, r3, #1
 350 000a AD5A     		ldrh	r5, [r5, r2]
 351              		.loc 1 684 40 view .LVU70
 352 000c 114A     		ldr	r2, .L21+4
 353 000e 2A43     		orrs	r2, r5
 354              		.loc 1 684 80 view .LVU71
 355 0010 0F25     		movs	r5, #15
 356 0012 2C40     		ands	r4, r5
 357              		.loc 1 684 71 view .LVU72
 358 0014 104D     		ldr	r5, .L21+8
 359 0016 2C5D     		ldrb	r4, [r5, r4]
 360              		.loc 1 684 57 view .LVU73
 361 0018 2243     		orrs	r2, r4
 362              		.loc 1 684 19 view .LVU74
 363 001a 9C00     		lsls	r4, r3, #2
 364 001c 0419     		adds	r4, r0, r4
 365              		.loc 1 684 23 view .LVU75
 366 001e 2260     		str	r2, [r4]
 685:Core/Src/main.c ****             if (data[i] & DECIMAL_POINT)
 367              		.loc 1 685 13 is_stmt 1 view .LVU76
 368              		.loc 1 685 21 is_stmt 0 view .LVU77
 369 0020 3578     		ldrb	r5, [r6]
 370              		.loc 1 685 16 view .LVU78
 371 0022 ED06     		lsls	r5, r5, #27
 372 0024 02D5     		bpl	.L17
 686:Core/Src/main.c ****             {
 687:Core/Src/main.c ****                 buffer[i] |= DP_MASK;
 373              		.loc 1 687 17 is_stmt 1 view .LVU79
 374              		.loc 1 687 27 is_stmt 0 view .LVU80
 375 0026 8025     		movs	r5, #128
 376 0028 2A43     		orrs	r2, r5
 377 002a 2260     		str	r2, [r4]
 378              	.L17:
ARM GAS  /var/folders/rj/9n9dpytj2n74_jwlj_p0xk9m0000gn/T//ccLmj4mt.s 			page 20


 676:Core/Src/main.c ****     {
 379              		.loc 1 676 48 is_stmt 1 discriminator 2 view .LVU81
 380 002c 0133     		adds	r3, r3, #1
 381              	.LVL34:
 676:Core/Src/main.c ****     {
 382              		.loc 1 676 48 is_stmt 0 discriminator 2 view .LVU82
 383 002e DBB2     		uxtb	r3, r3
 384              	.LVL35:
 385              	.L15:
 676:Core/Src/main.c ****     {
 386              		.loc 1 676 27 is_stmt 1 discriminator 1 view .LVU83
 387 0030 022B     		cmp	r3, #2
 388 0032 0BD8     		bhi	.L20
 678:Core/Src/main.c ****         {
 389              		.loc 1 678 9 view .LVU84
 678:Core/Src/main.c ****         {
 390              		.loc 1 678 17 is_stmt 0 view .LVU85
 391 0034 CE18     		adds	r6, r1, r3
 392 0036 CC5C     		ldrb	r4, [r1, r3]
 678:Core/Src/main.c ****         {
 393              		.loc 1 678 12 view .LVU86
 394 0038 A206     		lsls	r2, r4, #26
 395 003a E4D5     		bpl	.L16
 680:Core/Src/main.c ****         }
 396              		.loc 1 680 13 is_stmt 1 view .LVU87
 680:Core/Src/main.c ****         }
 397              		.loc 1 680 53 is_stmt 0 view .LVU88
 398 003c 044A     		ldr	r2, .L21
 399 003e 5C00     		lsls	r4, r3, #1
 400 0040 A55A     		ldrh	r5, [r4, r2]
 680:Core/Src/main.c ****         }
 401              		.loc 1 680 19 view .LVU89
 402 0042 9C00     		lsls	r4, r3, #2
 680:Core/Src/main.c ****         }
 403              		.loc 1 680 57 view .LVU90
 404 0044 054A     		ldr	r2, .L21+12
 405 0046 2A43     		orrs	r2, r5
 680:Core/Src/main.c ****         }
 406              		.loc 1 680 23 view .LVU91
 407 0048 0251     		str	r2, [r0, r4]
 408 004a EFE7     		b	.L17
 409              	.L20:
 680:Core/Src/main.c ****         }
 410              		.loc 1 680 23 view .LVU92
 411              	.LBE4:
 688:Core/Src/main.c ****             }
 689:Core/Src/main.c ****         }
 690:Core/Src/main.c ****     }
 691:Core/Src/main.c **** }
 412              		.loc 1 691 1 view .LVU93
 413              		@ sp needed
 414 004c 70BD     		pop	{r4, r5, r6, pc}
 415              	.L22:
 416 004e C046     		.align	2
 417              	.L21:
 418 0050 00000000 		.word	digit_masks
 419 0054 0000FFFF 		.word	-65536
ARM GAS  /var/folders/rj/9n9dpytj2n74_jwlj_p0xk9m0000gn/T//ccLmj4mt.s 			page 21


 420 0058 00000000 		.word	number_masks
 421 005c 4000FFFF 		.word	-65472
 422              		.cfi_endproc
 423              	.LFE53:
 425              		.global	__aeabi_uidiv
 426              		.global	__aeabi_uidivmod
 427              		.section	.text.update_buffer_with_salinity,"ax",%progbits
 428              		.align	1
 429              		.global	update_buffer_with_salinity
 430              		.syntax unified
 431              		.code	16
 432              		.thumb_func
 434              	update_buffer_with_salinity:
 435              	.LVL36:
 436              	.LFB50:
 645:Core/Src/main.c ****     // salinity is x10
 437              		.loc 1 645 1 is_stmt 1 view -0
 438              		.cfi_startproc
 439              		@ args = 0, pretend = 0, frame = 8
 440              		@ frame_needed = 0, uses_anonymous_args = 0
 645:Core/Src/main.c ****     // salinity is x10
 441              		.loc 1 645 1 is_stmt 0 view .LVU95
 442 0000 70B5     		push	{r4, r5, r6, lr}
 443              		.cfi_def_cfa_offset 16
 444              		.cfi_offset 4, -16
 445              		.cfi_offset 5, -12
 446              		.cfi_offset 6, -8
 447              		.cfi_offset 14, -4
 448 0002 82B0     		sub	sp, sp, #8
 449              		.cfi_def_cfa_offset 24
 450 0004 0600     		movs	r6, r0
 451 0006 0D00     		movs	r5, r1
 647:Core/Src/main.c ****     data[0] = salinity / 100;
 452              		.loc 1 647 5 is_stmt 1 view .LVU96
 647:Core/Src/main.c ****     data[0] = salinity / 100;
 453              		.loc 1 647 13 is_stmt 0 view .LVU97
 454 0008 01AC     		add	r4, sp, #4
 455 000a 0322     		movs	r2, #3
 456 000c 0021     		movs	r1, #0
 457              	.LVL37:
 647:Core/Src/main.c ****     data[0] = salinity / 100;
 458              		.loc 1 647 13 view .LVU98
 459 000e 2000     		movs	r0, r4
 460              	.LVL38:
 647:Core/Src/main.c ****     data[0] = salinity / 100;
 461              		.loc 1 647 13 view .LVU99
 462 0010 FFF7FEFF 		bl	memset
 463              	.LVL39:
 648:Core/Src/main.c ****     data[1] = ((salinity % 100) / 10) | DECIMAL_POINT;
 464              		.loc 1 648 5 is_stmt 1 view .LVU100
 648:Core/Src/main.c ****     data[1] = ((salinity % 100) / 10) | DECIMAL_POINT;
 465              		.loc 1 648 13 is_stmt 0 view .LVU101
 466 0014 6421     		movs	r1, #100
 467 0016 2800     		movs	r0, r5
 468 0018 FFF7FEFF 		bl	__aeabi_uidiv
 469              	.LVL40:
 470 001c 2070     		strb	r0, [r4]
ARM GAS  /var/folders/rj/9n9dpytj2n74_jwlj_p0xk9m0000gn/T//ccLmj4mt.s 			page 22


 649:Core/Src/main.c ****     data[2] = salinity % 10;
 471              		.loc 1 649 5 is_stmt 1 view .LVU102
 649:Core/Src/main.c ****     data[2] = salinity % 10;
 472              		.loc 1 649 13 is_stmt 0 view .LVU103
 473 001e 6421     		movs	r1, #100
 474 0020 2800     		movs	r0, r5
 475 0022 FFF7FEFF 		bl	__aeabi_uidivmod
 476              	.LVL41:
 477 0026 88B2     		uxth	r0, r1
 478 0028 0A21     		movs	r1, #10
 479 002a FFF7FEFF 		bl	__aeabi_uidiv
 480              	.LVL42:
 481 002e 1023     		movs	r3, #16
 482 0030 1843     		orrs	r0, r3
 483 0032 6070     		strb	r0, [r4, #1]
 650:Core/Src/main.c ****     update_buffer(buffer, data);
 484              		.loc 1 650 5 is_stmt 1 view .LVU104
 650:Core/Src/main.c ****     update_buffer(buffer, data);
 485              		.loc 1 650 13 is_stmt 0 view .LVU105
 486 0034 0A21     		movs	r1, #10
 487 0036 2800     		movs	r0, r5
 488 0038 FFF7FEFF 		bl	__aeabi_uidivmod
 489              	.LVL43:
 490 003c A170     		strb	r1, [r4, #2]
 651:Core/Src/main.c **** }
 491              		.loc 1 651 5 is_stmt 1 view .LVU106
 492 003e 2100     		movs	r1, r4
 493 0040 3000     		movs	r0, r6
 494 0042 FFF7FEFF 		bl	update_buffer
 495              	.LVL44:
 652:Core/Src/main.c **** 
 496              		.loc 1 652 1 is_stmt 0 view .LVU107
 497 0046 02B0     		add	sp, sp, #8
 498              		@ sp needed
 499              	.LVL45:
 500              	.LVL46:
 652:Core/Src/main.c **** 
 501              		.loc 1 652 1 view .LVU108
 502 0048 70BD     		pop	{r4, r5, r6, pc}
 503              		.cfi_endproc
 504              	.LFE50:
 506              		.section	.text.update_buffer_with_voltage,"ax",%progbits
 507              		.align	1
 508              		.global	update_buffer_with_voltage
 509              		.syntax unified
 510              		.code	16
 511              		.thumb_func
 513              	update_buffer_with_voltage:
 514              	.LVL47:
 515              	.LFB51:
 655:Core/Src/main.c ****     // voltage is 10 bit
 516              		.loc 1 655 1 is_stmt 1 view -0
 517              		.cfi_startproc
 518              		@ args = 0, pretend = 0, frame = 8
 519              		@ frame_needed = 0, uses_anonymous_args = 0
 655:Core/Src/main.c ****     // voltage is 10 bit
 520              		.loc 1 655 1 is_stmt 0 view .LVU110
ARM GAS  /var/folders/rj/9n9dpytj2n74_jwlj_p0xk9m0000gn/T//ccLmj4mt.s 			page 23


 521 0000 F0B5     		push	{r4, r5, r6, r7, lr}
 522              		.cfi_def_cfa_offset 20
 523              		.cfi_offset 4, -20
 524              		.cfi_offset 5, -16
 525              		.cfi_offset 6, -12
 526              		.cfi_offset 7, -8
 527              		.cfi_offset 14, -4
 528 0002 83B0     		sub	sp, sp, #12
 529              		.cfi_def_cfa_offset 32
 530 0004 0700     		movs	r7, r0
 531 0006 0E00     		movs	r6, r1
 657:Core/Src/main.c ****     voltage = (voltage * 330) / 1024;
 532              		.loc 1 657 5 is_stmt 1 view .LVU111
 657:Core/Src/main.c ****     voltage = (voltage * 330) / 1024;
 533              		.loc 1 657 13 is_stmt 0 view .LVU112
 534 0008 01AD     		add	r5, sp, #4
 535 000a 0322     		movs	r2, #3
 536 000c 0021     		movs	r1, #0
 537              	.LVL48:
 657:Core/Src/main.c ****     voltage = (voltage * 330) / 1024;
 538              		.loc 1 657 13 view .LVU113
 539 000e 2800     		movs	r0, r5
 540              	.LVL49:
 657:Core/Src/main.c ****     voltage = (voltage * 330) / 1024;
 541              		.loc 1 657 13 view .LVU114
 542 0010 FFF7FEFF 		bl	memset
 543              	.LVL50:
 658:Core/Src/main.c ****     data[0] = voltage / 100 | DECIMAL_POINT;
 544              		.loc 1 658 5 is_stmt 1 view .LVU115
 658:Core/Src/main.c ****     data[0] = voltage / 100 | DECIMAL_POINT;
 545              		.loc 1 658 24 is_stmt 0 view .LVU116
 546 0014 B400     		lsls	r4, r6, #2
 547 0016 A619     		adds	r6, r4, r6
 548              	.LVL51:
 658:Core/Src/main.c ****     data[0] = voltage / 100 | DECIMAL_POINT;
 549              		.loc 1 658 24 view .LVU117
 550 0018 7401     		lsls	r4, r6, #5
 551 001a 3419     		adds	r4, r6, r4
 658:Core/Src/main.c ****     data[0] = voltage / 100 | DECIMAL_POINT;
 552              		.loc 1 658 13 view .LVU118
 553 001c 640A     		lsrs	r4, r4, #9
 554              	.LVL52:
 659:Core/Src/main.c ****     data[1] = (voltage % 100) / 10;
 555              		.loc 1 659 5 is_stmt 1 view .LVU119
 659:Core/Src/main.c ****     data[1] = (voltage % 100) / 10;
 556              		.loc 1 659 13 is_stmt 0 view .LVU120
 557 001e 6421     		movs	r1, #100
 558 0020 2000     		movs	r0, r4
 559 0022 FFF7FEFF 		bl	__aeabi_uidiv
 560              	.LVL53:
 561 0026 1023     		movs	r3, #16
 562 0028 1843     		orrs	r0, r3
 563 002a 2870     		strb	r0, [r5]
 660:Core/Src/main.c ****     data[2] = voltage % 10;
 564              		.loc 1 660 5 is_stmt 1 view .LVU121
 660:Core/Src/main.c ****     data[2] = voltage % 10;
 565              		.loc 1 660 13 is_stmt 0 view .LVU122
ARM GAS  /var/folders/rj/9n9dpytj2n74_jwlj_p0xk9m0000gn/T//ccLmj4mt.s 			page 24


 566 002c 6421     		movs	r1, #100
 567 002e 2000     		movs	r0, r4
 568 0030 FFF7FEFF 		bl	__aeabi_uidivmod
 569              	.LVL54:
 570 0034 88B2     		uxth	r0, r1
 571 0036 0A21     		movs	r1, #10
 572 0038 FFF7FEFF 		bl	__aeabi_uidiv
 573              	.LVL55:
 574 003c 6870     		strb	r0, [r5, #1]
 661:Core/Src/main.c ****     update_buffer(buffer, data);
 575              		.loc 1 661 5 is_stmt 1 view .LVU123
 661:Core/Src/main.c ****     update_buffer(buffer, data);
 576              		.loc 1 661 13 is_stmt 0 view .LVU124
 577 003e 0A21     		movs	r1, #10
 578 0040 2000     		movs	r0, r4
 579 0042 FFF7FEFF 		bl	__aeabi_uidivmod
 580              	.LVL56:
 581 0046 A970     		strb	r1, [r5, #2]
 662:Core/Src/main.c **** }
 582              		.loc 1 662 5 is_stmt 1 view .LVU125
 583 0048 2900     		movs	r1, r5
 584 004a 3800     		movs	r0, r7
 585 004c FFF7FEFF 		bl	update_buffer
 586              	.LVL57:
 663:Core/Src/main.c **** 
 587              		.loc 1 663 1 is_stmt 0 view .LVU126
 588 0050 03B0     		add	sp, sp, #12
 589              		@ sp needed
 590              	.LVL58:
 591              	.LVL59:
 592              	.LVL60:
 663:Core/Src/main.c **** 
 593              		.loc 1 663 1 view .LVU127
 594 0052 F0BD     		pop	{r4, r5, r6, r7, pc}
 595              		.cfi_endproc
 596              	.LFE51:
 598              		.section	.text.update_buffer_with_int,"ax",%progbits
 599              		.align	1
 600              		.global	update_buffer_with_int
 601              		.syntax unified
 602              		.code	16
 603              		.thumb_func
 605              	update_buffer_with_int:
 606              	.LVL61:
 607              	.LFB52:
 666:Core/Src/main.c ****     uint8_t data[3] = {0, 0, 0};
 608              		.loc 1 666 1 is_stmt 1 view -0
 609              		.cfi_startproc
 610              		@ args = 0, pretend = 0, frame = 8
 611              		@ frame_needed = 0, uses_anonymous_args = 0
 666:Core/Src/main.c ****     uint8_t data[3] = {0, 0, 0};
 612              		.loc 1 666 1 is_stmt 0 view .LVU129
 613 0000 70B5     		push	{r4, r5, r6, lr}
 614              		.cfi_def_cfa_offset 16
 615              		.cfi_offset 4, -16
 616              		.cfi_offset 5, -12
 617              		.cfi_offset 6, -8
ARM GAS  /var/folders/rj/9n9dpytj2n74_jwlj_p0xk9m0000gn/T//ccLmj4mt.s 			page 25


 618              		.cfi_offset 14, -4
 619 0002 82B0     		sub	sp, sp, #8
 620              		.cfi_def_cfa_offset 24
 621 0004 0600     		movs	r6, r0
 622 0006 0D00     		movs	r5, r1
 667:Core/Src/main.c ****     data[0] = value / 100;
 623              		.loc 1 667 5 is_stmt 1 view .LVU130
 667:Core/Src/main.c ****     data[0] = value / 100;
 624              		.loc 1 667 13 is_stmt 0 view .LVU131
 625 0008 01AC     		add	r4, sp, #4
 626 000a 0322     		movs	r2, #3
 627 000c 0021     		movs	r1, #0
 628              	.LVL62:
 667:Core/Src/main.c ****     data[0] = value / 100;
 629              		.loc 1 667 13 view .LVU132
 630 000e 2000     		movs	r0, r4
 631              	.LVL63:
 667:Core/Src/main.c ****     data[0] = value / 100;
 632              		.loc 1 667 13 view .LVU133
 633 0010 FFF7FEFF 		bl	memset
 634              	.LVL64:
 668:Core/Src/main.c ****     data[1] = (value % 100) / 10;
 635              		.loc 1 668 5 is_stmt 1 view .LVU134
 668:Core/Src/main.c ****     data[1] = (value % 100) / 10;
 636              		.loc 1 668 13 is_stmt 0 view .LVU135
 637 0014 6421     		movs	r1, #100
 638 0016 2800     		movs	r0, r5
 639 0018 FFF7FEFF 		bl	__aeabi_uidiv
 640              	.LVL65:
 641 001c 2070     		strb	r0, [r4]
 669:Core/Src/main.c ****     data[2] = value % 10;
 642              		.loc 1 669 5 is_stmt 1 view .LVU136
 669:Core/Src/main.c ****     data[2] = value % 10;
 643              		.loc 1 669 13 is_stmt 0 view .LVU137
 644 001e 6421     		movs	r1, #100
 645 0020 2800     		movs	r0, r5
 646 0022 FFF7FEFF 		bl	__aeabi_uidivmod
 647              	.LVL66:
 648 0026 88B2     		uxth	r0, r1
 649 0028 0A21     		movs	r1, #10
 650 002a FFF7FEFF 		bl	__aeabi_uidiv
 651              	.LVL67:
 652 002e 6070     		strb	r0, [r4, #1]
 670:Core/Src/main.c ****     update_buffer(buffer, data);
 653              		.loc 1 670 5 is_stmt 1 view .LVU138
 670:Core/Src/main.c ****     update_buffer(buffer, data);
 654              		.loc 1 670 13 is_stmt 0 view .LVU139
 655 0030 0A21     		movs	r1, #10
 656 0032 2800     		movs	r0, r5
 657 0034 FFF7FEFF 		bl	__aeabi_uidivmod
 658              	.LVL68:
 659 0038 A170     		strb	r1, [r4, #2]
 671:Core/Src/main.c **** }
 660              		.loc 1 671 5 is_stmt 1 view .LVU140
 661 003a 2100     		movs	r1, r4
 662 003c 3000     		movs	r0, r6
 663 003e FFF7FEFF 		bl	update_buffer
ARM GAS  /var/folders/rj/9n9dpytj2n74_jwlj_p0xk9m0000gn/T//ccLmj4mt.s 			page 26


 664              	.LVL69:
 672:Core/Src/main.c **** 
 665              		.loc 1 672 1 is_stmt 0 view .LVU141
 666 0042 02B0     		add	sp, sp, #8
 667              		@ sp needed
 668              	.LVL70:
 669              	.LVL71:
 672:Core/Src/main.c **** 
 670              		.loc 1 672 1 view .LVU142
 671 0044 70BD     		pop	{r4, r5, r6, pc}
 672              		.cfi_endproc
 673              	.LFE52:
 675              		.section	.text.Error_Handler,"ax",%progbits
 676              		.align	1
 677              		.global	Error_Handler
 678              		.syntax unified
 679              		.code	16
 680              		.thumb_func
 682              	Error_Handler:
 683              	.LFB56:
 692:Core/Src/main.c **** 
 693:Core/Src/main.c **** void rs485_transmit(uint8_t *data, uint16_t size)
 694:Core/Src/main.c **** {
 695:Core/Src/main.c ****     HAL_GPIO_WritePin(LED_Green_GPIO_Port, LED_Green_Pin, GPIO_PIN_RESET);
 696:Core/Src/main.c ****     HAL_GPIO_WritePin(RS485_DE_GPIO_Port, RS485_DE_Pin, GPIO_PIN_SET);
 697:Core/Src/main.c ****     if (HAL_HalfDuplex_EnableTransmitter(&huart1) != HAL_OK)
 698:Core/Src/main.c ****     {
 699:Core/Src/main.c ****         Error_Handler();
 700:Core/Src/main.c ****     }
 701:Core/Src/main.c ****     if (HAL_UART_Transmit(&huart1, data, size, 1000) != HAL_OK)
 702:Core/Src/main.c ****     {
 703:Core/Src/main.c ****         Error_Handler();
 704:Core/Src/main.c ****     }
 705:Core/Src/main.c **** }
 706:Core/Src/main.c **** 
 707:Core/Src/main.c **** void rs485_receive_IT(uint16_t size)
 708:Core/Src/main.c **** {
 709:Core/Src/main.c ****     HAL_GPIO_WritePin(RS485_DE_GPIO_Port, RS485_DE_Pin, GPIO_PIN_RESET);
 710:Core/Src/main.c ****     if (HAL_HalfDuplex_EnableReceiver(&huart1) != HAL_OK)
 711:Core/Src/main.c ****     {
 712:Core/Src/main.c ****         Error_Handler();
 713:Core/Src/main.c ****     }
 714:Core/Src/main.c ****     if (HAL_UART_Receive_IT(&huart1, rx_buffer, size) != HAL_OK)
 715:Core/Src/main.c ****     {
 716:Core/Src/main.c ****         Error_Handler();
 717:Core/Src/main.c ****     }
 718:Core/Src/main.c **** }
 719:Core/Src/main.c **** 
 720:Core/Src/main.c **** /* USER CODE END 4 */
 721:Core/Src/main.c **** 
 722:Core/Src/main.c **** /**
 723:Core/Src/main.c ****  * @brief  This function is executed in case of error occurrence.
 724:Core/Src/main.c ****  * @retval None
 725:Core/Src/main.c ****  */
 726:Core/Src/main.c **** void Error_Handler(void)
 727:Core/Src/main.c **** {
 684              		.loc 1 727 1 is_stmt 1 view -0
ARM GAS  /var/folders/rj/9n9dpytj2n74_jwlj_p0xk9m0000gn/T//ccLmj4mt.s 			page 27


 685              		.cfi_startproc
 686              		@ Volatile: function does not return.
 687              		@ args = 0, pretend = 0, frame = 0
 688              		@ frame_needed = 0, uses_anonymous_args = 0
 689 0000 10B5     		push	{r4, lr}
 690              		.cfi_def_cfa_offset 8
 691              		.cfi_offset 4, -8
 692              		.cfi_offset 14, -4
 728:Core/Src/main.c ****     /* USER CODE BEGIN Error_Handler_Debug */
 729:Core/Src/main.c ****     /* User can add his own implementation to report the HAL error return state */
 730:Core/Src/main.c ****     __disable_irq();
 693              		.loc 1 730 5 view .LVU144
 694              	.LBB5:
 695              	.LBI5:
 696              		.file 2 "Drivers/CMSIS/Include/cmsis_gcc.h"
   1:Drivers/CMSIS/Include/cmsis_gcc.h **** /**************************************************************************//**
   2:Drivers/CMSIS/Include/cmsis_gcc.h ****  * @file     cmsis_gcc.h
   3:Drivers/CMSIS/Include/cmsis_gcc.h ****  * @brief    CMSIS compiler GCC header file
   4:Drivers/CMSIS/Include/cmsis_gcc.h ****  * @version  V5.0.4
   5:Drivers/CMSIS/Include/cmsis_gcc.h ****  * @date     09. April 2018
   6:Drivers/CMSIS/Include/cmsis_gcc.h ****  ******************************************************************************/
   7:Drivers/CMSIS/Include/cmsis_gcc.h **** /*
   8:Drivers/CMSIS/Include/cmsis_gcc.h ****  * Copyright (c) 2009-2018 Arm Limited. All rights reserved.
   9:Drivers/CMSIS/Include/cmsis_gcc.h ****  *
  10:Drivers/CMSIS/Include/cmsis_gcc.h ****  * SPDX-License-Identifier: Apache-2.0
  11:Drivers/CMSIS/Include/cmsis_gcc.h ****  *
  12:Drivers/CMSIS/Include/cmsis_gcc.h ****  * Licensed under the Apache License, Version 2.0 (the License); you may
  13:Drivers/CMSIS/Include/cmsis_gcc.h ****  * not use this file except in compliance with the License.
  14:Drivers/CMSIS/Include/cmsis_gcc.h ****  * You may obtain a copy of the License at
  15:Drivers/CMSIS/Include/cmsis_gcc.h ****  *
  16:Drivers/CMSIS/Include/cmsis_gcc.h ****  * www.apache.org/licenses/LICENSE-2.0
  17:Drivers/CMSIS/Include/cmsis_gcc.h ****  *
  18:Drivers/CMSIS/Include/cmsis_gcc.h ****  * Unless required by applicable law or agreed to in writing, software
  19:Drivers/CMSIS/Include/cmsis_gcc.h ****  * distributed under the License is distributed on an AS IS BASIS, WITHOUT
  20:Drivers/CMSIS/Include/cmsis_gcc.h ****  * WARRANTIES OR CONDITIONS OF ANY KIND, either express or implied.
  21:Drivers/CMSIS/Include/cmsis_gcc.h ****  * See the License for the specific language governing permissions and
  22:Drivers/CMSIS/Include/cmsis_gcc.h ****  * limitations under the License.
  23:Drivers/CMSIS/Include/cmsis_gcc.h ****  */
  24:Drivers/CMSIS/Include/cmsis_gcc.h **** 
  25:Drivers/CMSIS/Include/cmsis_gcc.h **** #ifndef __CMSIS_GCC_H
  26:Drivers/CMSIS/Include/cmsis_gcc.h **** #define __CMSIS_GCC_H
  27:Drivers/CMSIS/Include/cmsis_gcc.h **** 
  28:Drivers/CMSIS/Include/cmsis_gcc.h **** /* ignore some GCC warnings */
  29:Drivers/CMSIS/Include/cmsis_gcc.h **** #pragma GCC diagnostic push
  30:Drivers/CMSIS/Include/cmsis_gcc.h **** #pragma GCC diagnostic ignored "-Wsign-conversion"
  31:Drivers/CMSIS/Include/cmsis_gcc.h **** #pragma GCC diagnostic ignored "-Wconversion"
  32:Drivers/CMSIS/Include/cmsis_gcc.h **** #pragma GCC diagnostic ignored "-Wunused-parameter"
  33:Drivers/CMSIS/Include/cmsis_gcc.h **** 
  34:Drivers/CMSIS/Include/cmsis_gcc.h **** /* Fallback for __has_builtin */
  35:Drivers/CMSIS/Include/cmsis_gcc.h **** #ifndef __has_builtin
  36:Drivers/CMSIS/Include/cmsis_gcc.h ****   #define __has_builtin(x) (0)
  37:Drivers/CMSIS/Include/cmsis_gcc.h **** #endif
  38:Drivers/CMSIS/Include/cmsis_gcc.h **** 
  39:Drivers/CMSIS/Include/cmsis_gcc.h **** /* CMSIS compiler specific defines */
  40:Drivers/CMSIS/Include/cmsis_gcc.h **** #ifndef   __ASM
  41:Drivers/CMSIS/Include/cmsis_gcc.h ****   #define __ASM                                  __asm
  42:Drivers/CMSIS/Include/cmsis_gcc.h **** #endif
ARM GAS  /var/folders/rj/9n9dpytj2n74_jwlj_p0xk9m0000gn/T//ccLmj4mt.s 			page 28


  43:Drivers/CMSIS/Include/cmsis_gcc.h **** #ifndef   __INLINE
  44:Drivers/CMSIS/Include/cmsis_gcc.h ****   #define __INLINE                               inline
  45:Drivers/CMSIS/Include/cmsis_gcc.h **** #endif
  46:Drivers/CMSIS/Include/cmsis_gcc.h **** #ifndef   __STATIC_INLINE
  47:Drivers/CMSIS/Include/cmsis_gcc.h ****   #define __STATIC_INLINE                        static inline
  48:Drivers/CMSIS/Include/cmsis_gcc.h **** #endif
  49:Drivers/CMSIS/Include/cmsis_gcc.h **** #ifndef   __STATIC_FORCEINLINE                 
  50:Drivers/CMSIS/Include/cmsis_gcc.h ****   #define __STATIC_FORCEINLINE                   __attribute__((always_inline)) static inline
  51:Drivers/CMSIS/Include/cmsis_gcc.h **** #endif                                           
  52:Drivers/CMSIS/Include/cmsis_gcc.h **** #ifndef   __NO_RETURN
  53:Drivers/CMSIS/Include/cmsis_gcc.h ****   #define __NO_RETURN                            __attribute__((__noreturn__))
  54:Drivers/CMSIS/Include/cmsis_gcc.h **** #endif
  55:Drivers/CMSIS/Include/cmsis_gcc.h **** #ifndef   __USED
  56:Drivers/CMSIS/Include/cmsis_gcc.h ****   #define __USED                                 __attribute__((used))
  57:Drivers/CMSIS/Include/cmsis_gcc.h **** #endif
  58:Drivers/CMSIS/Include/cmsis_gcc.h **** #ifndef   __WEAK
  59:Drivers/CMSIS/Include/cmsis_gcc.h ****   #define __WEAK                                 __attribute__((weak))
  60:Drivers/CMSIS/Include/cmsis_gcc.h **** #endif
  61:Drivers/CMSIS/Include/cmsis_gcc.h **** #ifndef   __PACKED
  62:Drivers/CMSIS/Include/cmsis_gcc.h ****   #define __PACKED                               __attribute__((packed, aligned(1)))
  63:Drivers/CMSIS/Include/cmsis_gcc.h **** #endif
  64:Drivers/CMSIS/Include/cmsis_gcc.h **** #ifndef   __PACKED_STRUCT
  65:Drivers/CMSIS/Include/cmsis_gcc.h ****   #define __PACKED_STRUCT                        struct __attribute__((packed, aligned(1)))
  66:Drivers/CMSIS/Include/cmsis_gcc.h **** #endif
  67:Drivers/CMSIS/Include/cmsis_gcc.h **** #ifndef   __PACKED_UNION
  68:Drivers/CMSIS/Include/cmsis_gcc.h ****   #define __PACKED_UNION                         union __attribute__((packed, aligned(1)))
  69:Drivers/CMSIS/Include/cmsis_gcc.h **** #endif
  70:Drivers/CMSIS/Include/cmsis_gcc.h **** #ifndef   __UNALIGNED_UINT32        /* deprecated */
  71:Drivers/CMSIS/Include/cmsis_gcc.h ****   #pragma GCC diagnostic push
  72:Drivers/CMSIS/Include/cmsis_gcc.h ****   #pragma GCC diagnostic ignored "-Wpacked"
  73:Drivers/CMSIS/Include/cmsis_gcc.h ****   #pragma GCC diagnostic ignored "-Wattributes"
  74:Drivers/CMSIS/Include/cmsis_gcc.h ****   struct __attribute__((packed)) T_UINT32 { uint32_t v; };
  75:Drivers/CMSIS/Include/cmsis_gcc.h ****   #pragma GCC diagnostic pop
  76:Drivers/CMSIS/Include/cmsis_gcc.h ****   #define __UNALIGNED_UINT32(x)                  (((struct T_UINT32 *)(x))->v)
  77:Drivers/CMSIS/Include/cmsis_gcc.h **** #endif
  78:Drivers/CMSIS/Include/cmsis_gcc.h **** #ifndef   __UNALIGNED_UINT16_WRITE
  79:Drivers/CMSIS/Include/cmsis_gcc.h ****   #pragma GCC diagnostic push
  80:Drivers/CMSIS/Include/cmsis_gcc.h ****   #pragma GCC diagnostic ignored "-Wpacked"
  81:Drivers/CMSIS/Include/cmsis_gcc.h ****   #pragma GCC diagnostic ignored "-Wattributes"
  82:Drivers/CMSIS/Include/cmsis_gcc.h ****   __PACKED_STRUCT T_UINT16_WRITE { uint16_t v; };
  83:Drivers/CMSIS/Include/cmsis_gcc.h ****   #pragma GCC diagnostic pop
  84:Drivers/CMSIS/Include/cmsis_gcc.h ****   #define __UNALIGNED_UINT16_WRITE(addr, val)    (void)((((struct T_UINT16_WRITE *)(void *)(addr))-
  85:Drivers/CMSIS/Include/cmsis_gcc.h **** #endif
  86:Drivers/CMSIS/Include/cmsis_gcc.h **** #ifndef   __UNALIGNED_UINT16_READ
  87:Drivers/CMSIS/Include/cmsis_gcc.h ****   #pragma GCC diagnostic push
  88:Drivers/CMSIS/Include/cmsis_gcc.h ****   #pragma GCC diagnostic ignored "-Wpacked"
  89:Drivers/CMSIS/Include/cmsis_gcc.h ****   #pragma GCC diagnostic ignored "-Wattributes"
  90:Drivers/CMSIS/Include/cmsis_gcc.h ****   __PACKED_STRUCT T_UINT16_READ { uint16_t v; };
  91:Drivers/CMSIS/Include/cmsis_gcc.h ****   #pragma GCC diagnostic pop
  92:Drivers/CMSIS/Include/cmsis_gcc.h ****   #define __UNALIGNED_UINT16_READ(addr)          (((const struct T_UINT16_READ *)(const void *)(add
  93:Drivers/CMSIS/Include/cmsis_gcc.h **** #endif
  94:Drivers/CMSIS/Include/cmsis_gcc.h **** #ifndef   __UNALIGNED_UINT32_WRITE
  95:Drivers/CMSIS/Include/cmsis_gcc.h ****   #pragma GCC diagnostic push
  96:Drivers/CMSIS/Include/cmsis_gcc.h ****   #pragma GCC diagnostic ignored "-Wpacked"
  97:Drivers/CMSIS/Include/cmsis_gcc.h ****   #pragma GCC diagnostic ignored "-Wattributes"
  98:Drivers/CMSIS/Include/cmsis_gcc.h ****   __PACKED_STRUCT T_UINT32_WRITE { uint32_t v; };
  99:Drivers/CMSIS/Include/cmsis_gcc.h ****   #pragma GCC diagnostic pop
ARM GAS  /var/folders/rj/9n9dpytj2n74_jwlj_p0xk9m0000gn/T//ccLmj4mt.s 			page 29


 100:Drivers/CMSIS/Include/cmsis_gcc.h ****   #define __UNALIGNED_UINT32_WRITE(addr, val)    (void)((((struct T_UINT32_WRITE *)(void *)(addr))-
 101:Drivers/CMSIS/Include/cmsis_gcc.h **** #endif
 102:Drivers/CMSIS/Include/cmsis_gcc.h **** #ifndef   __UNALIGNED_UINT32_READ
 103:Drivers/CMSIS/Include/cmsis_gcc.h ****   #pragma GCC diagnostic push
 104:Drivers/CMSIS/Include/cmsis_gcc.h ****   #pragma GCC diagnostic ignored "-Wpacked"
 105:Drivers/CMSIS/Include/cmsis_gcc.h ****   #pragma GCC diagnostic ignored "-Wattributes"
 106:Drivers/CMSIS/Include/cmsis_gcc.h ****   __PACKED_STRUCT T_UINT32_READ { uint32_t v; };
 107:Drivers/CMSIS/Include/cmsis_gcc.h ****   #pragma GCC diagnostic pop
 108:Drivers/CMSIS/Include/cmsis_gcc.h ****   #define __UNALIGNED_UINT32_READ(addr)          (((const struct T_UINT32_READ *)(const void *)(add
 109:Drivers/CMSIS/Include/cmsis_gcc.h **** #endif
 110:Drivers/CMSIS/Include/cmsis_gcc.h **** #ifndef   __ALIGNED
 111:Drivers/CMSIS/Include/cmsis_gcc.h ****   #define __ALIGNED(x)                           __attribute__((aligned(x)))
 112:Drivers/CMSIS/Include/cmsis_gcc.h **** #endif
 113:Drivers/CMSIS/Include/cmsis_gcc.h **** #ifndef   __RESTRICT
 114:Drivers/CMSIS/Include/cmsis_gcc.h ****   #define __RESTRICT                             __restrict
 115:Drivers/CMSIS/Include/cmsis_gcc.h **** #endif
 116:Drivers/CMSIS/Include/cmsis_gcc.h **** 
 117:Drivers/CMSIS/Include/cmsis_gcc.h **** 
 118:Drivers/CMSIS/Include/cmsis_gcc.h **** /* ###########################  Core Function Access  ########################### */
 119:Drivers/CMSIS/Include/cmsis_gcc.h **** /** \ingroup  CMSIS_Core_FunctionInterface
 120:Drivers/CMSIS/Include/cmsis_gcc.h ****     \defgroup CMSIS_Core_RegAccFunctions CMSIS Core Register Access Functions
 121:Drivers/CMSIS/Include/cmsis_gcc.h ****   @{
 122:Drivers/CMSIS/Include/cmsis_gcc.h ****  */
 123:Drivers/CMSIS/Include/cmsis_gcc.h **** 
 124:Drivers/CMSIS/Include/cmsis_gcc.h **** /**
 125:Drivers/CMSIS/Include/cmsis_gcc.h ****   \brief   Enable IRQ Interrupts
 126:Drivers/CMSIS/Include/cmsis_gcc.h ****   \details Enables IRQ interrupts by clearing the I-bit in the CPSR.
 127:Drivers/CMSIS/Include/cmsis_gcc.h ****            Can only be executed in Privileged modes.
 128:Drivers/CMSIS/Include/cmsis_gcc.h ****  */
 129:Drivers/CMSIS/Include/cmsis_gcc.h **** __STATIC_FORCEINLINE void __enable_irq(void)
 130:Drivers/CMSIS/Include/cmsis_gcc.h **** {
 131:Drivers/CMSIS/Include/cmsis_gcc.h ****   __ASM volatile ("cpsie i" : : : "memory");
 132:Drivers/CMSIS/Include/cmsis_gcc.h **** }
 133:Drivers/CMSIS/Include/cmsis_gcc.h **** 
 134:Drivers/CMSIS/Include/cmsis_gcc.h **** 
 135:Drivers/CMSIS/Include/cmsis_gcc.h **** /**
 136:Drivers/CMSIS/Include/cmsis_gcc.h ****   \brief   Disable IRQ Interrupts
 137:Drivers/CMSIS/Include/cmsis_gcc.h ****   \details Disables IRQ interrupts by setting the I-bit in the CPSR.
 138:Drivers/CMSIS/Include/cmsis_gcc.h ****            Can only be executed in Privileged modes.
 139:Drivers/CMSIS/Include/cmsis_gcc.h ****  */
 140:Drivers/CMSIS/Include/cmsis_gcc.h **** __STATIC_FORCEINLINE void __disable_irq(void)
 697              		.loc 2 140 27 view .LVU145
 698              	.LBB6:
 141:Drivers/CMSIS/Include/cmsis_gcc.h **** {
 142:Drivers/CMSIS/Include/cmsis_gcc.h ****   __ASM volatile ("cpsid i" : : : "memory");
 699              		.loc 2 142 3 view .LVU146
 700              		.syntax divided
 701              	@ 142 "Drivers/CMSIS/Include/cmsis_gcc.h" 1
 702 0002 72B6     		cpsid i
 703              	@ 0 "" 2
 704              		.thumb
 705              		.syntax unified
 706              	.LBE6:
 707              	.LBE5:
 731:Core/Src/main.c ****     HAL_GPIO_WritePin(LED_Red_GPIO_Port, LED_Red_Pin, GPIO_PIN_SET);
 708              		.loc 1 731 5 view .LVU147
 709 0004 0122     		movs	r2, #1
ARM GAS  /var/folders/rj/9n9dpytj2n74_jwlj_p0xk9m0000gn/T//ccLmj4mt.s 			page 30


 710 0006 0121     		movs	r1, #1
 711 0008 0548     		ldr	r0, .L29
 712 000a FFF7FEFF 		bl	HAL_GPIO_WritePin
 713              	.LVL72:
 714              	.L27:
 732:Core/Src/main.c ****     while (1)
 715              		.loc 1 732 5 view .LVU148
 733:Core/Src/main.c ****     {
 734:Core/Src/main.c ****         if (HAL_GPIO_ReadPin(SW2_GPIO_Port, SW2_Pin) == GPIO_PIN_RESET)
 716              		.loc 1 734 9 view .LVU149
 717              		.loc 1 734 13 is_stmt 0 view .LVU150
 718 000e 2021     		movs	r1, #32
 719 0010 0448     		ldr	r0, .L29+4
 720 0012 FFF7FEFF 		bl	HAL_GPIO_ReadPin
 721              	.LVL73:
 722              		.loc 1 734 12 discriminator 1 view .LVU151
 723 0016 0028     		cmp	r0, #0
 724 0018 F9D1     		bne	.L27
 735:Core/Src/main.c ****         {
 736:Core/Src/main.c ****             HAL_NVIC_SystemReset();
 725              		.loc 1 736 13 is_stmt 1 view .LVU152
 726 001a FFF7FEFF 		bl	HAL_NVIC_SystemReset
 727              	.LVL74:
 728 001e F6E7     		b	.L27
 729              	.L30:
 730              		.align	2
 731              	.L29:
 732 0020 00140048 		.word	1207964672
 733 0024 00040048 		.word	1207960576
 734              		.cfi_endproc
 735              	.LFE56:
 737              		.section	.text.SystemClock_Config,"ax",%progbits
 738              		.align	1
 739              		.global	SystemClock_Config
 740              		.syntax unified
 741              		.code	16
 742              		.thumb_func
 744              	SystemClock_Config:
 745              	.LFB44:
 219:Core/Src/main.c ****     RCC_OscInitTypeDef RCC_OscInitStruct = {0};
 746              		.loc 1 219 1 view -0
 747              		.cfi_startproc
 748              		@ args = 0, pretend = 0, frame = 80
 749              		@ frame_needed = 0, uses_anonymous_args = 0
 750 0000 00B5     		push	{lr}
 751              		.cfi_def_cfa_offset 4
 752              		.cfi_offset 14, -4
 753 0002 95B0     		sub	sp, sp, #84
 754              		.cfi_def_cfa_offset 88
 220:Core/Src/main.c ****     RCC_ClkInitTypeDef RCC_ClkInitStruct = {0};
 755              		.loc 1 220 5 view .LVU154
 220:Core/Src/main.c ****     RCC_ClkInitTypeDef RCC_ClkInitStruct = {0};
 756              		.loc 1 220 24 is_stmt 0 view .LVU155
 757 0004 3022     		movs	r2, #48
 758 0006 0021     		movs	r1, #0
 759 0008 08A8     		add	r0, sp, #32
 760 000a FFF7FEFF 		bl	memset
ARM GAS  /var/folders/rj/9n9dpytj2n74_jwlj_p0xk9m0000gn/T//ccLmj4mt.s 			page 31


 761              	.LVL75:
 221:Core/Src/main.c ****     RCC_PeriphCLKInitTypeDef PeriphClkInit = {0};
 762              		.loc 1 221 5 is_stmt 1 view .LVU156
 221:Core/Src/main.c ****     RCC_PeriphCLKInitTypeDef PeriphClkInit = {0};
 763              		.loc 1 221 24 is_stmt 0 view .LVU157
 764 000e 1022     		movs	r2, #16
 765 0010 0021     		movs	r1, #0
 766 0012 04A8     		add	r0, sp, #16
 767 0014 FFF7FEFF 		bl	memset
 768              	.LVL76:
 222:Core/Src/main.c **** 
 769              		.loc 1 222 5 is_stmt 1 view .LVU158
 222:Core/Src/main.c **** 
 770              		.loc 1 222 30 is_stmt 0 view .LVU159
 771 0018 1022     		movs	r2, #16
 772 001a 0021     		movs	r1, #0
 773 001c 6846     		mov	r0, sp
 774 001e FFF7FEFF 		bl	memset
 775              	.LVL77:
 227:Core/Src/main.c ****     RCC_OscInitStruct.HSIState = RCC_HSI_ON;
 776              		.loc 1 227 5 is_stmt 1 view .LVU160
 227:Core/Src/main.c ****     RCC_OscInitStruct.HSIState = RCC_HSI_ON;
 777              		.loc 1 227 38 is_stmt 0 view .LVU161
 778 0022 0223     		movs	r3, #2
 779 0024 0893     		str	r3, [sp, #32]
 228:Core/Src/main.c ****     RCC_OscInitStruct.HSICalibrationValue = RCC_HSICALIBRATION_DEFAULT;
 780              		.loc 1 228 5 is_stmt 1 view .LVU162
 228:Core/Src/main.c ****     RCC_OscInitStruct.HSICalibrationValue = RCC_HSICALIBRATION_DEFAULT;
 781              		.loc 1 228 32 is_stmt 0 view .LVU163
 782 0026 013B     		subs	r3, r3, #1
 783 0028 0B93     		str	r3, [sp, #44]
 229:Core/Src/main.c ****     RCC_OscInitStruct.PLL.PLLState = RCC_PLL_NONE;
 784              		.loc 1 229 5 is_stmt 1 view .LVU164
 229:Core/Src/main.c ****     RCC_OscInitStruct.PLL.PLLState = RCC_PLL_NONE;
 785              		.loc 1 229 43 is_stmt 0 view .LVU165
 786 002a 0F33     		adds	r3, r3, #15
 787 002c 0C93     		str	r3, [sp, #48]
 230:Core/Src/main.c ****     if (HAL_RCC_OscConfig(&RCC_OscInitStruct) != HAL_OK)
 788              		.loc 1 230 5 is_stmt 1 view .LVU166
 231:Core/Src/main.c ****     {
 789              		.loc 1 231 5 view .LVU167
 231:Core/Src/main.c ****     {
 790              		.loc 1 231 9 is_stmt 0 view .LVU168
 791 002e 08A8     		add	r0, sp, #32
 792 0030 FFF7FEFF 		bl	HAL_RCC_OscConfig
 793              	.LVL78:
 231:Core/Src/main.c ****     {
 794              		.loc 1 231 8 discriminator 1 view .LVU169
 795 0034 0028     		cmp	r0, #0
 796 0036 16D1     		bne	.L35
 238:Core/Src/main.c ****     RCC_ClkInitStruct.SYSCLKSource = RCC_SYSCLKSOURCE_HSI;
 797              		.loc 1 238 5 is_stmt 1 view .LVU170
 238:Core/Src/main.c ****     RCC_ClkInitStruct.SYSCLKSource = RCC_SYSCLKSOURCE_HSI;
 798              		.loc 1 238 33 is_stmt 0 view .LVU171
 799 0038 0723     		movs	r3, #7
 800 003a 0493     		str	r3, [sp, #16]
 239:Core/Src/main.c ****     RCC_ClkInitStruct.AHBCLKDivider = RCC_SYSCLK_DIV1;
ARM GAS  /var/folders/rj/9n9dpytj2n74_jwlj_p0xk9m0000gn/T//ccLmj4mt.s 			page 32


 801              		.loc 1 239 5 is_stmt 1 view .LVU172
 239:Core/Src/main.c ****     RCC_ClkInitStruct.AHBCLKDivider = RCC_SYSCLK_DIV1;
 802              		.loc 1 239 36 is_stmt 0 view .LVU173
 803 003c 0023     		movs	r3, #0
 804 003e 0593     		str	r3, [sp, #20]
 240:Core/Src/main.c ****     RCC_ClkInitStruct.APB1CLKDivider = RCC_HCLK_DIV1;
 805              		.loc 1 240 5 is_stmt 1 view .LVU174
 240:Core/Src/main.c ****     RCC_ClkInitStruct.APB1CLKDivider = RCC_HCLK_DIV1;
 806              		.loc 1 240 37 is_stmt 0 view .LVU175
 807 0040 0693     		str	r3, [sp, #24]
 241:Core/Src/main.c **** 
 808              		.loc 1 241 5 is_stmt 1 view .LVU176
 241:Core/Src/main.c **** 
 809              		.loc 1 241 38 is_stmt 0 view .LVU177
 810 0042 0793     		str	r3, [sp, #28]
 243:Core/Src/main.c ****     {
 811              		.loc 1 243 5 is_stmt 1 view .LVU178
 243:Core/Src/main.c ****     {
 812              		.loc 1 243 9 is_stmt 0 view .LVU179
 813 0044 0021     		movs	r1, #0
 814 0046 04A8     		add	r0, sp, #16
 815 0048 FFF7FEFF 		bl	HAL_RCC_ClockConfig
 816              	.LVL79:
 243:Core/Src/main.c ****     {
 817              		.loc 1 243 8 discriminator 1 view .LVU180
 818 004c 0028     		cmp	r0, #0
 819 004e 0CD1     		bne	.L36
 247:Core/Src/main.c ****     PeriphClkInit.Usart1ClockSelection = RCC_USART1CLKSOURCE_PCLK1;
 820              		.loc 1 247 5 is_stmt 1 view .LVU181
 247:Core/Src/main.c ****     PeriphClkInit.Usart1ClockSelection = RCC_USART1CLKSOURCE_PCLK1;
 821              		.loc 1 247 40 is_stmt 0 view .LVU182
 822 0050 0123     		movs	r3, #1
 823 0052 0093     		str	r3, [sp]
 248:Core/Src/main.c ****     if (HAL_RCCEx_PeriphCLKConfig(&PeriphClkInit) != HAL_OK)
 824              		.loc 1 248 5 is_stmt 1 view .LVU183
 248:Core/Src/main.c ****     if (HAL_RCCEx_PeriphCLKConfig(&PeriphClkInit) != HAL_OK)
 825              		.loc 1 248 40 is_stmt 0 view .LVU184
 826 0054 0023     		movs	r3, #0
 827 0056 0293     		str	r3, [sp, #8]
 249:Core/Src/main.c ****     {
 828              		.loc 1 249 5 is_stmt 1 view .LVU185
 249:Core/Src/main.c ****     {
 829              		.loc 1 249 9 is_stmt 0 view .LVU186
 830 0058 6846     		mov	r0, sp
 831 005a FFF7FEFF 		bl	HAL_RCCEx_PeriphCLKConfig
 832              	.LVL80:
 249:Core/Src/main.c ****     {
 833              		.loc 1 249 8 discriminator 1 view .LVU187
 834 005e 0028     		cmp	r0, #0
 835 0060 05D1     		bne	.L37
 253:Core/Src/main.c **** 
 836              		.loc 1 253 1 view .LVU188
 837 0062 15B0     		add	sp, sp, #84
 838              		@ sp needed
 839 0064 00BD     		pop	{pc}
 840              	.L35:
 233:Core/Src/main.c ****     }
ARM GAS  /var/folders/rj/9n9dpytj2n74_jwlj_p0xk9m0000gn/T//ccLmj4mt.s 			page 33


 841              		.loc 1 233 9 is_stmt 1 view .LVU189
 842 0066 FFF7FEFF 		bl	Error_Handler
 843              	.LVL81:
 844              	.L36:
 245:Core/Src/main.c ****     }
 845              		.loc 1 245 9 view .LVU190
 846 006a FFF7FEFF 		bl	Error_Handler
 847              	.LVL82:
 848              	.L37:
 251:Core/Src/main.c ****     }
 849              		.loc 1 251 9 view .LVU191
 850 006e FFF7FEFF 		bl	Error_Handler
 851              	.LVL83:
 852              		.cfi_endproc
 853              	.LFE44:
 855              		.section	.text.rs485_transmit,"ax",%progbits
 856              		.align	1
 857              		.global	rs485_transmit
 858              		.syntax unified
 859              		.code	16
 860              		.thumb_func
 862              	rs485_transmit:
 863              	.LVL84:
 864              	.LFB54:
 694:Core/Src/main.c ****     HAL_GPIO_WritePin(LED_Green_GPIO_Port, LED_Green_Pin, GPIO_PIN_RESET);
 865              		.loc 1 694 1 view -0
 866              		.cfi_startproc
 867              		@ args = 0, pretend = 0, frame = 0
 868              		@ frame_needed = 0, uses_anonymous_args = 0
 694:Core/Src/main.c ****     HAL_GPIO_WritePin(LED_Green_GPIO_Port, LED_Green_Pin, GPIO_PIN_RESET);
 869              		.loc 1 694 1 is_stmt 0 view .LVU193
 870 0000 70B5     		push	{r4, r5, r6, lr}
 871              		.cfi_def_cfa_offset 16
 872              		.cfi_offset 4, -16
 873              		.cfi_offset 5, -12
 874              		.cfi_offset 6, -8
 875              		.cfi_offset 14, -4
 876 0002 0400     		movs	r4, r0
 877 0004 0D00     		movs	r5, r1
 695:Core/Src/main.c ****     HAL_GPIO_WritePin(RS485_DE_GPIO_Port, RS485_DE_Pin, GPIO_PIN_SET);
 878              		.loc 1 695 5 is_stmt 1 view .LVU194
 879 0006 0022     		movs	r2, #0
 880 0008 0221     		movs	r1, #2
 881              	.LVL85:
 695:Core/Src/main.c ****     HAL_GPIO_WritePin(RS485_DE_GPIO_Port, RS485_DE_Pin, GPIO_PIN_SET);
 882              		.loc 1 695 5 is_stmt 0 view .LVU195
 883 000a 0D48     		ldr	r0, .L43
 884              	.LVL86:
 695:Core/Src/main.c ****     HAL_GPIO_WritePin(RS485_DE_GPIO_Port, RS485_DE_Pin, GPIO_PIN_SET);
 885              		.loc 1 695 5 view .LVU196
 886 000c FFF7FEFF 		bl	HAL_GPIO_WritePin
 887              	.LVL87:
 696:Core/Src/main.c ****     if (HAL_HalfDuplex_EnableTransmitter(&huart1) != HAL_OK)
 888              		.loc 1 696 5 is_stmt 1 view .LVU197
 889 0010 0122     		movs	r2, #1
 890 0012 8021     		movs	r1, #128
 891 0014 0B48     		ldr	r0, .L43+4
ARM GAS  /var/folders/rj/9n9dpytj2n74_jwlj_p0xk9m0000gn/T//ccLmj4mt.s 			page 34


 892 0016 FFF7FEFF 		bl	HAL_GPIO_WritePin
 893              	.LVL88:
 697:Core/Src/main.c ****     {
 894              		.loc 1 697 5 view .LVU198
 697:Core/Src/main.c ****     {
 895              		.loc 1 697 9 is_stmt 0 view .LVU199
 896 001a 0B48     		ldr	r0, .L43+8
 897 001c FFF7FEFF 		bl	HAL_HalfDuplex_EnableTransmitter
 898              	.LVL89:
 697:Core/Src/main.c ****     {
 899              		.loc 1 697 8 discriminator 1 view .LVU200
 900 0020 0028     		cmp	r0, #0
 901 0022 09D1     		bne	.L41
 701:Core/Src/main.c ****     {
 902              		.loc 1 701 5 is_stmt 1 view .LVU201
 701:Core/Src/main.c ****     {
 903              		.loc 1 701 9 is_stmt 0 view .LVU202
 904 0024 FA23     		movs	r3, #250
 905 0026 0848     		ldr	r0, .L43+8
 906 0028 9B00     		lsls	r3, r3, #2
 907 002a 2A00     		movs	r2, r5
 908 002c 2100     		movs	r1, r4
 909 002e FFF7FEFF 		bl	HAL_UART_Transmit
 910              	.LVL90:
 701:Core/Src/main.c ****     {
 911              		.loc 1 701 8 discriminator 1 view .LVU203
 912 0032 0028     		cmp	r0, #0
 913 0034 02D1     		bne	.L42
 705:Core/Src/main.c **** 
 914              		.loc 1 705 1 view .LVU204
 915              		@ sp needed
 916              	.LVL91:
 917              	.LVL92:
 705:Core/Src/main.c **** 
 918              		.loc 1 705 1 view .LVU205
 919 0036 70BD     		pop	{r4, r5, r6, pc}
 920              	.LVL93:
 921              	.L41:
 699:Core/Src/main.c ****     }
 922              		.loc 1 699 9 is_stmt 1 view .LVU206
 923 0038 FFF7FEFF 		bl	Error_Handler
 924              	.LVL94:
 925              	.L42:
 703:Core/Src/main.c ****     }
 926              		.loc 1 703 9 view .LVU207
 927 003c FFF7FEFF 		bl	Error_Handler
 928              	.LVL95:
 929              	.L44:
 930              		.align	2
 931              	.L43:
 932 0040 00140048 		.word	1207964672
 933 0044 00040048 		.word	1207960576
 934 0048 00000000 		.word	huart1
 935              		.cfi_endproc
 936              	.LFE54:
 938              		.section	.text.rs485_receive_IT,"ax",%progbits
 939              		.align	1
ARM GAS  /var/folders/rj/9n9dpytj2n74_jwlj_p0xk9m0000gn/T//ccLmj4mt.s 			page 35


 940              		.global	rs485_receive_IT
 941              		.syntax unified
 942              		.code	16
 943              		.thumb_func
 945              	rs485_receive_IT:
 946              	.LVL96:
 947              	.LFB55:
 708:Core/Src/main.c ****     HAL_GPIO_WritePin(RS485_DE_GPIO_Port, RS485_DE_Pin, GPIO_PIN_RESET);
 948              		.loc 1 708 1 view -0
 949              		.cfi_startproc
 950              		@ args = 0, pretend = 0, frame = 0
 951              		@ frame_needed = 0, uses_anonymous_args = 0
 708:Core/Src/main.c ****     HAL_GPIO_WritePin(RS485_DE_GPIO_Port, RS485_DE_Pin, GPIO_PIN_RESET);
 952              		.loc 1 708 1 is_stmt 0 view .LVU209
 953 0000 10B5     		push	{r4, lr}
 954              		.cfi_def_cfa_offset 8
 955              		.cfi_offset 4, -8
 956              		.cfi_offset 14, -4
 957 0002 0400     		movs	r4, r0
 709:Core/Src/main.c ****     if (HAL_HalfDuplex_EnableReceiver(&huart1) != HAL_OK)
 958              		.loc 1 709 5 is_stmt 1 view .LVU210
 959 0004 0022     		movs	r2, #0
 960 0006 8021     		movs	r1, #128
 961 0008 0948     		ldr	r0, .L50
 962              	.LVL97:
 709:Core/Src/main.c ****     if (HAL_HalfDuplex_EnableReceiver(&huart1) != HAL_OK)
 963              		.loc 1 709 5 is_stmt 0 view .LVU211
 964 000a FFF7FEFF 		bl	HAL_GPIO_WritePin
 965              	.LVL98:
 710:Core/Src/main.c ****     {
 966              		.loc 1 710 5 is_stmt 1 view .LVU212
 710:Core/Src/main.c ****     {
 967              		.loc 1 710 9 is_stmt 0 view .LVU213
 968 000e 0948     		ldr	r0, .L50+4
 969 0010 FFF7FEFF 		bl	HAL_HalfDuplex_EnableReceiver
 970              	.LVL99:
 710:Core/Src/main.c ****     {
 971              		.loc 1 710 8 discriminator 1 view .LVU214
 972 0014 0028     		cmp	r0, #0
 973 0016 07D1     		bne	.L48
 714:Core/Src/main.c ****     {
 974              		.loc 1 714 5 is_stmt 1 view .LVU215
 714:Core/Src/main.c ****     {
 975              		.loc 1 714 9 is_stmt 0 view .LVU216
 976 0018 0749     		ldr	r1, .L50+8
 977 001a 0648     		ldr	r0, .L50+4
 978 001c 2200     		movs	r2, r4
 979 001e FFF7FEFF 		bl	HAL_UART_Receive_IT
 980              	.LVL100:
 714:Core/Src/main.c ****     {
 981              		.loc 1 714 8 discriminator 1 view .LVU217
 982 0022 0028     		cmp	r0, #0
 983 0024 02D1     		bne	.L49
 718:Core/Src/main.c **** 
 984              		.loc 1 718 1 view .LVU218
 985              		@ sp needed
 986              	.LVL101:
ARM GAS  /var/folders/rj/9n9dpytj2n74_jwlj_p0xk9m0000gn/T//ccLmj4mt.s 			page 36


 718:Core/Src/main.c **** 
 987              		.loc 1 718 1 view .LVU219
 988 0026 10BD     		pop	{r4, pc}
 989              	.L48:
 712:Core/Src/main.c ****     }
 990              		.loc 1 712 9 is_stmt 1 view .LVU220
 991 0028 FFF7FEFF 		bl	Error_Handler
 992              	.LVL102:
 993              	.L49:
 716:Core/Src/main.c ****     }
 994              		.loc 1 716 9 view .LVU221
 995 002c FFF7FEFF 		bl	Error_Handler
 996              	.LVL103:
 997              	.L51:
 998              		.align	2
 999              	.L50:
 1000 0030 00040048 		.word	1207960576
 1001 0034 00000000 		.word	huart1
 1002 0038 00000000 		.word	rx_buffer
 1003              		.cfi_endproc
 1004              	.LFE55:
 1006              		.global	__aeabi_idiv
 1007              		.section	.rodata.main.str1.4,"aMS",%progbits,1
 1008              		.align	2
 1009              	.LC19:
 1010 0000 0700     		.ascii	"\007\000"
 1011              		.section	.text.main,"ax",%progbits
 1012              		.align	1
 1013              		.global	main
 1014              		.syntax unified
 1015              		.code	16
 1016              		.thumb_func
 1018              	main:
 1019              	.LFB43:
 148:Core/Src/main.c ****     /* USER CODE BEGIN 1 */
 1020              		.loc 1 148 1 view -0
 1021              		.cfi_startproc
 1022              		@ args = 0, pretend = 0, frame = 8
 1023              		@ frame_needed = 0, uses_anonymous_args = 0
 1024 0000 10B5     		push	{r4, lr}
 1025              		.cfi_def_cfa_offset 8
 1026              		.cfi_offset 4, -8
 1027              		.cfi_offset 14, -4
 1028 0002 82B0     		sub	sp, sp, #8
 1029              		.cfi_def_cfa_offset 16
 150:Core/Src/main.c ****     {
 1030              		.loc 1 150 5 view .LVU223
 1031              	.LBB7:
 150:Core/Src/main.c ****     {
 1032              		.loc 1 150 10 view .LVU224
 1033              	.LVL104:
 150:Core/Src/main.c ****     {
 1034              		.loc 1 150 19 is_stmt 0 view .LVU225
 1035 0004 0024     		movs	r4, #0
 150:Core/Src/main.c ****     {
 1036              		.loc 1 150 5 view .LVU226
 1037 0006 0AE0     		b	.L53
ARM GAS  /var/folders/rj/9n9dpytj2n74_jwlj_p0xk9m0000gn/T//ccLmj4mt.s 			page 37


 1038              	.LVL105:
 1039              	.L54:
 152:Core/Src/main.c ****     }
 1040              		.loc 1 152 9 is_stmt 1 view .LVU227
 152:Core/Src/main.c ****     }
 1041              		.loc 1 152 29 is_stmt 0 view .LVU228
 1042 0008 A002     		lsls	r0, r4, #10
 152:Core/Src/main.c ****     }
 1043              		.loc 1 152 37 view .LVU229
 1044 000a A521     		movs	r1, #165
 1045 000c 4900     		lsls	r1, r1, #1
 1046 000e FFF7FEFF 		bl	__aeabi_idiv
 1047              	.LVL106:
 152:Core/Src/main.c ****     }
 1048              		.loc 1 152 43 view .LVU230
 1049 0012 0130     		adds	r0, r0, #1
 152:Core/Src/main.c ****     }
 1050              		.loc 1 152 24 view .LVU231
 1051 0014 314B     		ldr	r3, .L56
 1052 0016 6200     		lsls	r2, r4, #1
 1053 0018 9852     		strh	r0, [r3, r2]
 150:Core/Src/main.c ****     {
 1054              		.loc 1 150 36 is_stmt 1 discriminator 3 view .LVU232
 1055 001a 0134     		adds	r4, r4, #1
 1056              	.LVL107:
 150:Core/Src/main.c ****     {
 1057              		.loc 1 150 36 is_stmt 0 discriminator 3 view .LVU233
 1058 001c A4B2     		uxth	r4, r4
 1059              	.LVL108:
 1060              	.L53:
 150:Core/Src/main.c ****     {
 1061              		.loc 1 150 28 is_stmt 1 discriminator 1 view .LVU234
 1062 001e A523     		movs	r3, #165
 1063 0020 5B00     		lsls	r3, r3, #1
 1064 0022 9C42     		cmp	r4, r3
 1065 0024 F0D3     		bcc	.L54
 1066              	.LBE7:
 154:Core/Src/main.c ****     probe_config.voltage_end = voltage_map[v_end];
 1067              		.loc 1 154 5 view .LVU235
 154:Core/Src/main.c ****     probe_config.voltage_end = voltage_map[v_end];
 1068              		.loc 1 154 45 is_stmt 0 view .LVU236
 1069 0026 2D4B     		ldr	r3, .L56
 1070 0028 2D4A     		ldr	r2, .L56+4
 1071 002a 1288     		ldrh	r2, [r2]
 1072 002c 5200     		lsls	r2, r2, #1
 1073 002e D25A     		ldrh	r2, [r2, r3]
 154:Core/Src/main.c ****     probe_config.voltage_end = voltage_map[v_end];
 1074              		.loc 1 154 32 view .LVU237
 1075 0030 2C49     		ldr	r1, .L56+8
 1076 0032 8A80     		strh	r2, [r1, #4]
 155:Core/Src/main.c ****     /* USER CODE END 1 */
 1077              		.loc 1 155 5 is_stmt 1 view .LVU238
 155:Core/Src/main.c ****     /* USER CODE END 1 */
 1078              		.loc 1 155 43 is_stmt 0 view .LVU239
 1079 0034 2C4A     		ldr	r2, .L56+12
 1080 0036 1288     		ldrh	r2, [r2]
 1081 0038 5200     		lsls	r2, r2, #1
ARM GAS  /var/folders/rj/9n9dpytj2n74_jwlj_p0xk9m0000gn/T//ccLmj4mt.s 			page 38


 1082 003a D35A     		ldrh	r3, [r2, r3]
 155:Core/Src/main.c ****     /* USER CODE END 1 */
 1083              		.loc 1 155 30 view .LVU240
 1084 003c CB80     		strh	r3, [r1, #6]
 161:Core/Src/main.c **** 
 1085              		.loc 1 161 5 is_stmt 1 view .LVU241
 1086 003e FFF7FEFF 		bl	HAL_Init
 1087              	.LVL109:
 168:Core/Src/main.c **** 
 1088              		.loc 1 168 5 view .LVU242
 1089 0042 FFF7FEFF 		bl	SystemClock_Config
 1090              	.LVL110:
 175:Core/Src/main.c ****     MX_DMA_Init();
 1091              		.loc 1 175 5 view .LVU243
 1092 0046 FFF7FEFF 		bl	MX_GPIO_Init
 1093              	.LVL111:
 176:Core/Src/main.c ****     MX_SPI2_Init();
 1094              		.loc 1 176 5 view .LVU244
 1095 004a FFF7FEFF 		bl	MX_DMA_Init
 1096              	.LVL112:
 177:Core/Src/main.c ****     MX_USART1_UART_Init();
 1097              		.loc 1 177 5 view .LVU245
 1098 004e FFF7FEFF 		bl	MX_SPI2_Init
 1099              	.LVL113:
 178:Core/Src/main.c ****     MX_TIM6_Init();
 1100              		.loc 1 178 5 view .LVU246
 1101 0052 FFF7FEFF 		bl	MX_USART1_UART_Init
 1102              	.LVL114:
 179:Core/Src/main.c ****     MX_TIM17_Init();
 1103              		.loc 1 179 5 view .LVU247
 1104 0056 FFF7FEFF 		bl	MX_TIM6_Init
 1105              	.LVL115:
 180:Core/Src/main.c **** 
 1106              		.loc 1 180 5 view .LVU248
 1107 005a FFF7FEFF 		bl	MX_TIM17_Init
 1108              	.LVL116:
 183:Core/Src/main.c ****     /* USER CODE BEGIN 2 */
 1109              		.loc 1 183 5 view .LVU249
 1110 005e FFF7FEFF 		bl	MX_NVIC_Init
 1111              	.LVL117:
 185:Core/Src/main.c ****     dig2 = get_digit(2);
 1112              		.loc 1 185 5 view .LVU250
 185:Core/Src/main.c ****     dig2 = get_digit(2);
 1113              		.loc 1 185 12 is_stmt 0 view .LVU251
 1114 0062 0120     		movs	r0, #1
 1115 0064 FFF7FEFF 		bl	get_digit
 1116              	.LVL118:
 185:Core/Src/main.c ****     dig2 = get_digit(2);
 1117              		.loc 1 185 10 discriminator 1 view .LVU252
 1118 0068 204B     		ldr	r3, .L56+16
 1119 006a 1870     		strb	r0, [r3]
 186:Core/Src/main.c ****     dig3 = get_digit(3);
 1120              		.loc 1 186 5 is_stmt 1 view .LVU253
 186:Core/Src/main.c ****     dig3 = get_digit(3);
 1121              		.loc 1 186 12 is_stmt 0 view .LVU254
 1122 006c 0220     		movs	r0, #2
 1123 006e FFF7FEFF 		bl	get_digit
ARM GAS  /var/folders/rj/9n9dpytj2n74_jwlj_p0xk9m0000gn/T//ccLmj4mt.s 			page 39


 1124              	.LVL119:
 186:Core/Src/main.c ****     dig3 = get_digit(3);
 1125              		.loc 1 186 10 discriminator 1 view .LVU255
 1126 0072 1F4B     		ldr	r3, .L56+20
 1127 0074 1870     		strb	r0, [r3]
 187:Core/Src/main.c **** 
 1128              		.loc 1 187 5 is_stmt 1 view .LVU256
 187:Core/Src/main.c **** 
 1129              		.loc 1 187 12 is_stmt 0 view .LVU257
 1130 0076 0320     		movs	r0, #3
 1131 0078 FFF7FEFF 		bl	get_digit
 1132              	.LVL120:
 187:Core/Src/main.c **** 
 1133              		.loc 1 187 10 discriminator 1 view .LVU258
 1134 007c 1D4B     		ldr	r3, .L56+24
 1135 007e 1870     		strb	r0, [r3]
 189:Core/Src/main.c ****     HAL_TIM_Base_Start(&htim6);
 1136              		.loc 1 189 5 is_stmt 1 view .LVU259
 1137 0080 1D49     		ldr	r1, .L56+28
 1138 0082 1E48     		ldr	r0, .L56+32
 1139 0084 0323     		movs	r3, #3
 1140 0086 1E4A     		ldr	r2, .L56+36
 1141 0088 FFF7FEFF 		bl	HAL_DMA_Start
 1142              	.LVL121:
 190:Core/Src/main.c ****     __HAL_TIM_ENABLE_DMA(&htim6, TIM_DMA_UPDATE);
 1143              		.loc 1 190 5 view .LVU260
 1144 008c 1D4C     		ldr	r4, .L56+40
 1145              	.LVL122:
 190:Core/Src/main.c ****     __HAL_TIM_ENABLE_DMA(&htim6, TIM_DMA_UPDATE);
 1146              		.loc 1 190 5 is_stmt 0 view .LVU261
 1147 008e 2000     		movs	r0, r4
 1148 0090 FFF7FEFF 		bl	HAL_TIM_Base_Start
 1149              	.LVL123:
 191:Core/Src/main.c **** 
 1150              		.loc 1 191 5 is_stmt 1 view .LVU262
 1151 0094 2268     		ldr	r2, [r4]
 1152 0096 D168     		ldr	r1, [r2, #12]
 1153 0098 8023     		movs	r3, #128
 1154 009a 5B00     		lsls	r3, r3, #1
 1155 009c 0B43     		orrs	r3, r1
 1156 009e D360     		str	r3, [r2, #12]
 193:Core/Src/main.c ****     HAL_TIM_Base_Start(&htim17);
 1157              		.loc 1 193 5 view .LVU263
 1158 00a0 1949     		ldr	r1, .L56+44
 1159 00a2 1A48     		ldr	r0, .L56+48
 1160 00a4 0323     		movs	r3, #3
 1161 00a6 1A4A     		ldr	r2, .L56+52
 1162 00a8 FFF7FEFF 		bl	HAL_DMA_Start
 1163              	.LVL124:
 194:Core/Src/main.c ****     __HAL_TIM_ENABLE_DMA(&htim17, TIM_DMA_CC1);
 1164              		.loc 1 194 5 view .LVU264
 1165 00ac 194C     		ldr	r4, .L56+56
 1166 00ae 2000     		movs	r0, r4
 1167 00b0 FFF7FEFF 		bl	HAL_TIM_Base_Start
 1168              	.LVL125:
 195:Core/Src/main.c **** 
 1169              		.loc 1 195 5 view .LVU265
ARM GAS  /var/folders/rj/9n9dpytj2n74_jwlj_p0xk9m0000gn/T//ccLmj4mt.s 			page 40


 1170 00b4 2268     		ldr	r2, [r4]
 1171 00b6 D168     		ldr	r1, [r2, #12]
 1172 00b8 8023     		movs	r3, #128
 1173 00ba 9B00     		lsls	r3, r3, #2
 1174 00bc 0B43     		orrs	r3, r1
 1175 00be D360     		str	r3, [r2, #12]
 197:Core/Src/main.c ****     uint8_t command[] = {COMMAND_SET_CONFIG};
 1176              		.loc 1 197 5 view .LVU266
 197:Core/Src/main.c ****     uint8_t command[] = {COMMAND_SET_CONFIG};
 1177              		.loc 1 197 24 is_stmt 0 view .LVU267
 1178 00c0 154B     		ldr	r3, .L56+60
 1179 00c2 0A22     		movs	r2, #10
 1180 00c4 1A70     		strb	r2, [r3]
 198:Core/Src/main.c ****     rs485_transmit(command, 1);
 1181              		.loc 1 198 5 is_stmt 1 view .LVU268
 198:Core/Src/main.c ****     rs485_transmit(command, 1);
 1182              		.loc 1 198 13 is_stmt 0 view .LVU269
 1183 00c6 01A8     		add	r0, sp, #4
 1184 00c8 144B     		ldr	r3, .L56+64
 1185 00ca 1B78     		ldrb	r3, [r3]
 1186 00cc 0370     		strb	r3, [r0]
 199:Core/Src/main.c ****     rs485_receive_IT(1);
 1187              		.loc 1 199 5 is_stmt 1 view .LVU270
 1188 00ce 0121     		movs	r1, #1
 1189 00d0 FFF7FEFF 		bl	rs485_transmit
 1190              	.LVL126:
 200:Core/Src/main.c ****     /* USER CODE END 2 */
 1191              		.loc 1 200 5 view .LVU271
 1192 00d4 0120     		movs	r0, #1
 1193 00d6 FFF7FEFF 		bl	rs485_receive_IT
 1194              	.LVL127:
 1195              	.L55:
 205:Core/Src/main.c ****     {
 1196              		.loc 1 205 5 view .LVU272
 210:Core/Src/main.c ****     /* USER CODE END 3 */
 1197              		.loc 1 210 5 view .LVU273
 205:Core/Src/main.c ****     {
 1198              		.loc 1 205 11 view .LVU274
 1199 00da FEE7     		b	.L55
 1200              	.L57:
 1201              		.align	2
 1202              	.L56:
 1203 00dc 00000000 		.word	voltage_map
 1204 00e0 00000000 		.word	v_start
 1205 00e4 00000000 		.word	probe_config
 1206 00e8 00000000 		.word	v_end
 1207 00ec 00000000 		.word	dig1
 1208 00f0 00000000 		.word	dig2
 1209 00f4 00000000 		.word	dig3
 1210 00f8 00000000 		.word	salinity_dma_buff
 1211 00fc 00000000 		.word	hdma_tim6_up
 1212 0100 18080048 		.word	1207961624
 1213 0104 00000000 		.word	htim6
 1214 0108 00000000 		.word	depth_dma_buff
 1215 010c 00000000 		.word	hdma_tim17_ch1_up
 1216 0110 18000048 		.word	1207959576
 1217 0114 00000000 		.word	htim17
ARM GAS  /var/folders/rj/9n9dpytj2n74_jwlj_p0xk9m0000gn/T//ccLmj4mt.s 			page 41


 1218 0118 00000000 		.word	expecting_response
 1219 011c 00000000 		.word	.LC19
 1220              		.cfi_endproc
 1221              	.LFE43:
 1223              		.section	.rodata.HAL_UART_RxCpltCallback.str1.4,"aMS",%progbits,1
 1224              		.align	2
 1225              	.LC27:
 1226 0000 0200     		.ascii	"\002\000"
 1227              		.section	.text.HAL_UART_RxCpltCallback,"ax",%progbits
 1228              		.align	1
 1229              		.global	HAL_UART_RxCpltCallback
 1230              		.syntax unified
 1231              		.code	16
 1232              		.thumb_func
 1234              	HAL_UART_RxCpltCallback:
 1235              	.LVL128:
 1236              	.LFB46:
 275:Core/Src/main.c ****     if (huart->Instance == USART1)
 1237              		.loc 1 275 1 view -0
 1238              		.cfi_startproc
 1239              		@ args = 0, pretend = 0, frame = 8
 1240              		@ frame_needed = 0, uses_anonymous_args = 0
 275:Core/Src/main.c ****     if (huart->Instance == USART1)
 1241              		.loc 1 275 1 is_stmt 0 view .LVU276
 1242 0000 00B5     		push	{lr}
 1243              		.cfi_def_cfa_offset 4
 1244              		.cfi_offset 14, -4
 1245 0002 83B0     		sub	sp, sp, #12
 1246              		.cfi_def_cfa_offset 16
 276:Core/Src/main.c ****     {
 1247              		.loc 1 276 5 is_stmt 1 view .LVU277
 276:Core/Src/main.c ****     {
 1248              		.loc 1 276 14 is_stmt 0 view .LVU278
 1249 0004 0268     		ldr	r2, [r0]
 276:Core/Src/main.c ****     {
 1250              		.loc 1 276 8 view .LVU279
 1251 0006 574B     		ldr	r3, .L75
 1252 0008 9A42     		cmp	r2, r3
 1253 000a 01D0     		beq	.L73
 1254              	.LVL129:
 1255              	.L58:
 370:Core/Src/main.c **** 
 1256              		.loc 1 370 1 view .LVU280
 1257 000c 03B0     		add	sp, sp, #12
 1258              		@ sp needed
 1259 000e 00BD     		pop	{pc}
 1260              	.LVL130:
 1261              	.L73:
 278:Core/Src/main.c ****         switch (expecting_response)
 1262              		.loc 1 278 9 is_stmt 1 view .LVU281
 1263 0010 0122     		movs	r2, #1
 1264 0012 0221     		movs	r1, #2
 1265 0014 5448     		ldr	r0, .L75+4
 1266              	.LVL131:
 278:Core/Src/main.c ****         switch (expecting_response)
 1267              		.loc 1 278 9 is_stmt 0 view .LVU282
 1268 0016 FFF7FEFF 		bl	HAL_GPIO_WritePin
ARM GAS  /var/folders/rj/9n9dpytj2n74_jwlj_p0xk9m0000gn/T//ccLmj4mt.s 			page 42


 1269              	.LVL132:
 279:Core/Src/main.c ****         {
 1270              		.loc 1 279 9 is_stmt 1 view .LVU283
 1271 001a 544B     		ldr	r3, .L75+8
 1272 001c 1B78     		ldrb	r3, [r3]
 1273 001e 033B     		subs	r3, r3, #3
 1274 0020 DAB2     		uxtb	r2, r3
 1275 0022 082A     		cmp	r2, #8
 1276 0024 F2D8     		bhi	.L58
 1277 0026 9300     		lsls	r3, r2, #2
 1278 0028 514A     		ldr	r2, .L75+12
 1279 002a D358     		ldr	r3, [r2, r3]
 1280 002c 9F46     		mov	pc, r3
 1281              		.section	.rodata.HAL_UART_RxCpltCallback,"a",%progbits
 1282              		.align	2
 1283              	.L62:
 1284 0000 6C000000 		.word	.L70
 1285 0004 8E000000 		.word	.L69
 1286 0008 FA000000 		.word	.L68
 1287 000c D6000000 		.word	.L67
 1288 0010 B4000000 		.word	.L66
 1289 0014 2E000000 		.word	.L65
 1290 0018 58010000 		.word	.L64
 1291 001c 1E010000 		.word	.L63
 1292 0020 38010000 		.word	.L61
 1293              		.section	.text.HAL_UART_RxCpltCallback
 1294              	.L65:
 1295              	.LBB8:
 282:Core/Src/main.c ****             salinity[1] = rx_buffer[1];
 1296              		.loc 1 282 13 view .LVU284
 282:Core/Src/main.c ****             salinity[1] = rx_buffer[1];
 1297              		.loc 1 282 36 is_stmt 0 view .LVU285
 1298 002e 514A     		ldr	r2, .L75+16
 1299 0030 1178     		ldrb	r1, [r2]
 282:Core/Src/main.c ****             salinity[1] = rx_buffer[1];
 1300              		.loc 1 282 25 view .LVU286
 1301 0032 514B     		ldr	r3, .L75+20
 1302 0034 1970     		strb	r1, [r3]
 283:Core/Src/main.c ****             salinity[2] = rx_buffer[2];
 1303              		.loc 1 283 13 is_stmt 1 view .LVU287
 283:Core/Src/main.c ****             salinity[2] = rx_buffer[2];
 1304              		.loc 1 283 36 is_stmt 0 view .LVU288
 1305 0036 5178     		ldrb	r1, [r2, #1]
 283:Core/Src/main.c ****             salinity[2] = rx_buffer[2];
 1306              		.loc 1 283 25 view .LVU289
 1307 0038 5970     		strb	r1, [r3, #1]
 284:Core/Src/main.c ****             if (display_mode == DISPLAY_SALINITY_DEPTH)
 1308              		.loc 1 284 13 is_stmt 1 view .LVU290
 284:Core/Src/main.c ****             if (display_mode == DISPLAY_SALINITY_DEPTH)
 1309              		.loc 1 284 36 is_stmt 0 view .LVU291
 1310 003a 9278     		ldrb	r2, [r2, #2]
 284:Core/Src/main.c ****             if (display_mode == DISPLAY_SALINITY_DEPTH)
 1311              		.loc 1 284 25 view .LVU292
 1312 003c 9A70     		strb	r2, [r3, #2]
 285:Core/Src/main.c ****             {
 1313              		.loc 1 285 13 is_stmt 1 view .LVU293
 285:Core/Src/main.c ****             {
ARM GAS  /var/folders/rj/9n9dpytj2n74_jwlj_p0xk9m0000gn/T//ccLmj4mt.s 			page 43


 1314              		.loc 1 285 30 is_stmt 0 view .LVU294
 1315 003e 4F4B     		ldr	r3, .L75+24
 1316 0040 1B78     		ldrb	r3, [r3]
 285:Core/Src/main.c ****             {
 1317              		.loc 1 285 16 view .LVU295
 1318 0042 002B     		cmp	r3, #0
 1319 0044 0DD0     		beq	.L74
 1320              	.L71:
 289:Core/Src/main.c ****             uint8_t command[] = {COMMAND_GET_DEPTH};
 1321              		.loc 1 289 13 is_stmt 1 view .LVU296
 289:Core/Src/main.c ****             uint8_t command[] = {COMMAND_GET_DEPTH};
 1322              		.loc 1 289 32 is_stmt 0 view .LVU297
 1323 0046 494B     		ldr	r3, .L75+8
 1324 0048 0422     		movs	r2, #4
 1325 004a 1A70     		strb	r2, [r3]
 290:Core/Src/main.c ****             rs485_transmit(command, 1);
 1326              		.loc 1 290 13 is_stmt 1 view .LVU298
 290:Core/Src/main.c ****             rs485_transmit(command, 1);
 1327              		.loc 1 290 21 is_stmt 0 view .LVU299
 1328 004c 01A8     		add	r0, sp, #4
 1329 004e 4C4B     		ldr	r3, .L75+28
 1330 0050 1B78     		ldrb	r3, [r3]
 1331 0052 0370     		strb	r3, [r0]
 291:Core/Src/main.c ****             rs485_receive_IT(DATA_PACKET_SIZE);
 1332              		.loc 1 291 13 is_stmt 1 view .LVU300
 1333 0054 0121     		movs	r1, #1
 1334 0056 FFF7FEFF 		bl	rs485_transmit
 1335              	.LVL133:
 292:Core/Src/main.c ****             break;
 1336              		.loc 1 292 13 view .LVU301
 1337 005a 0320     		movs	r0, #3
 1338 005c FFF7FEFF 		bl	rs485_receive_IT
 1339              	.LVL134:
 293:Core/Src/main.c ****         case EXPECTING_TEMPERATURE:
 1340              		.loc 1 293 13 view .LVU302
 1341 0060 D4E7     		b	.L58
 1342              	.L74:
 287:Core/Src/main.c ****             }
 1343              		.loc 1 287 17 view .LVU303
 1344 0062 4549     		ldr	r1, .L75+20
 1345 0064 4748     		ldr	r0, .L75+32
 1346 0066 FFF7FEFF 		bl	update_buffer
 1347              	.LVL135:
 1348 006a ECE7     		b	.L71
 1349              	.L70:
 295:Core/Src/main.c ****             temperature[1] = rx_buffer[1];
 1350              		.loc 1 295 13 view .LVU304
 295:Core/Src/main.c ****             temperature[1] = rx_buffer[1];
 1351              		.loc 1 295 39 is_stmt 0 view .LVU305
 1352 006c 414A     		ldr	r2, .L75+16
 1353 006e 1178     		ldrb	r1, [r2]
 295:Core/Src/main.c ****             temperature[1] = rx_buffer[1];
 1354              		.loc 1 295 28 view .LVU306
 1355 0070 454B     		ldr	r3, .L75+36
 1356 0072 1970     		strb	r1, [r3]
 296:Core/Src/main.c ****             temperature[2] = rx_buffer[2];
 1357              		.loc 1 296 13 is_stmt 1 view .LVU307
ARM GAS  /var/folders/rj/9n9dpytj2n74_jwlj_p0xk9m0000gn/T//ccLmj4mt.s 			page 44


 296:Core/Src/main.c ****             temperature[2] = rx_buffer[2];
 1358              		.loc 1 296 39 is_stmt 0 view .LVU308
 1359 0074 5178     		ldrb	r1, [r2, #1]
 296:Core/Src/main.c ****             temperature[2] = rx_buffer[2];
 1360              		.loc 1 296 28 view .LVU309
 1361 0076 5970     		strb	r1, [r3, #1]
 297:Core/Src/main.c ****             if (display_mode == DISPLAY_TEMPERATURE)
 1362              		.loc 1 297 13 is_stmt 1 view .LVU310
 297:Core/Src/main.c ****             if (display_mode == DISPLAY_TEMPERATURE)
 1363              		.loc 1 297 39 is_stmt 0 view .LVU311
 1364 0078 9278     		ldrb	r2, [r2, #2]
 297:Core/Src/main.c ****             if (display_mode == DISPLAY_TEMPERATURE)
 1365              		.loc 1 297 28 view .LVU312
 1366 007a 9A70     		strb	r2, [r3, #2]
 298:Core/Src/main.c ****             {
 1367              		.loc 1 298 13 is_stmt 1 view .LVU313
 298:Core/Src/main.c ****             {
 1368              		.loc 1 298 30 is_stmt 0 view .LVU314
 1369 007c 3F4B     		ldr	r3, .L75+24
 1370 007e 1B78     		ldrb	r3, [r3]
 298:Core/Src/main.c ****             {
 1371              		.loc 1 298 16 view .LVU315
 1372 0080 012B     		cmp	r3, #1
 1373 0082 C3D1     		bne	.L58
 300:Core/Src/main.c ****             }
 1374              		.loc 1 300 17 is_stmt 1 view .LVU316
 1375 0084 4049     		ldr	r1, .L75+36
 1376 0086 4148     		ldr	r0, .L75+40
 1377 0088 FFF7FEFF 		bl	update_buffer
 1378              	.LVL136:
 1379 008c BEE7     		b	.L58
 1380              	.L69:
 304:Core/Src/main.c ****             depth[1] = rx_buffer[1];
 1381              		.loc 1 304 13 view .LVU317
 304:Core/Src/main.c ****             depth[1] = rx_buffer[1];
 1382              		.loc 1 304 33 is_stmt 0 view .LVU318
 1383 008e 394A     		ldr	r2, .L75+16
 1384 0090 1178     		ldrb	r1, [r2]
 304:Core/Src/main.c ****             depth[1] = rx_buffer[1];
 1385              		.loc 1 304 22 view .LVU319
 1386 0092 3F4B     		ldr	r3, .L75+44
 1387 0094 1970     		strb	r1, [r3]
 305:Core/Src/main.c ****             depth[2] = rx_buffer[2];
 1388              		.loc 1 305 13 is_stmt 1 view .LVU320
 305:Core/Src/main.c ****             depth[2] = rx_buffer[2];
 1389              		.loc 1 305 33 is_stmt 0 view .LVU321
 1390 0096 5178     		ldrb	r1, [r2, #1]
 305:Core/Src/main.c ****             depth[2] = rx_buffer[2];
 1391              		.loc 1 305 22 view .LVU322
 1392 0098 5970     		strb	r1, [r3, #1]
 306:Core/Src/main.c ****             if ((display_mode == DISPLAY_DEPTH) || (display_mode == DISPLAY_SALINITY_DEPTH))
 1393              		.loc 1 306 13 is_stmt 1 view .LVU323
 306:Core/Src/main.c ****             if ((display_mode == DISPLAY_DEPTH) || (display_mode == DISPLAY_SALINITY_DEPTH))
 1394              		.loc 1 306 33 is_stmt 0 view .LVU324
 1395 009a 9278     		ldrb	r2, [r2, #2]
 306:Core/Src/main.c ****             if ((display_mode == DISPLAY_DEPTH) || (display_mode == DISPLAY_SALINITY_DEPTH))
 1396              		.loc 1 306 22 view .LVU325
ARM GAS  /var/folders/rj/9n9dpytj2n74_jwlj_p0xk9m0000gn/T//ccLmj4mt.s 			page 45


 1397 009c 9A70     		strb	r2, [r3, #2]
 307:Core/Src/main.c ****             {
 1398              		.loc 1 307 13 is_stmt 1 view .LVU326
 307:Core/Src/main.c ****             {
 1399              		.loc 1 307 31 is_stmt 0 view .LVU327
 1400 009e 374B     		ldr	r3, .L75+24
 1401 00a0 1B78     		ldrb	r3, [r3]
 307:Core/Src/main.c ****             {
 1402              		.loc 1 307 16 view .LVU328
 1403 00a2 022B     		cmp	r3, #2
 1404 00a4 01D0     		beq	.L72
 307:Core/Src/main.c ****             {
 1405              		.loc 1 307 49 discriminator 1 view .LVU329
 1406 00a6 002B     		cmp	r3, #0
 1407 00a8 B0D1     		bne	.L58
 1408              	.L72:
 309:Core/Src/main.c ****             }
 1409              		.loc 1 309 17 is_stmt 1 view .LVU330
 1410 00aa 3949     		ldr	r1, .L75+44
 1411 00ac 3748     		ldr	r0, .L75+40
 1412 00ae FFF7FEFF 		bl	update_buffer
 1413              	.LVL137:
 1414 00b2 ABE7     		b	.L58
 1415              	.L66:
 313:Core/Src/main.c ****             salinity[1] = rx_buffer[1];
 1416              		.loc 1 313 13 view .LVU331
 313:Core/Src/main.c ****             salinity[1] = rx_buffer[1];
 1417              		.loc 1 313 36 is_stmt 0 view .LVU332
 1418 00b4 2F4A     		ldr	r2, .L75+16
 1419 00b6 1178     		ldrb	r1, [r2]
 313:Core/Src/main.c ****             salinity[1] = rx_buffer[1];
 1420              		.loc 1 313 25 view .LVU333
 1421 00b8 2F4B     		ldr	r3, .L75+20
 1422 00ba 1970     		strb	r1, [r3]
 314:Core/Src/main.c ****             salinity[2] = rx_buffer[2];
 1423              		.loc 1 314 13 is_stmt 1 view .LVU334
 314:Core/Src/main.c ****             salinity[2] = rx_buffer[2];
 1424              		.loc 1 314 36 is_stmt 0 view .LVU335
 1425 00bc 5178     		ldrb	r1, [r2, #1]
 314:Core/Src/main.c ****             salinity[2] = rx_buffer[2];
 1426              		.loc 1 314 25 view .LVU336
 1427 00be 5970     		strb	r1, [r3, #1]
 315:Core/Src/main.c ****             if (display_mode == DISPLAY_SALINITY)
 1428              		.loc 1 315 13 is_stmt 1 view .LVU337
 315:Core/Src/main.c ****             if (display_mode == DISPLAY_SALINITY)
 1429              		.loc 1 315 36 is_stmt 0 view .LVU338
 1430 00c0 9278     		ldrb	r2, [r2, #2]
 315:Core/Src/main.c ****             if (display_mode == DISPLAY_SALINITY)
 1431              		.loc 1 315 25 view .LVU339
 1432 00c2 9A70     		strb	r2, [r3, #2]
 316:Core/Src/main.c ****             {
 1433              		.loc 1 316 13 is_stmt 1 view .LVU340
 316:Core/Src/main.c ****             {
 1434              		.loc 1 316 30 is_stmt 0 view .LVU341
 1435 00c4 2D4B     		ldr	r3, .L75+24
 1436 00c6 1B78     		ldrb	r3, [r3]
 316:Core/Src/main.c ****             {
ARM GAS  /var/folders/rj/9n9dpytj2n74_jwlj_p0xk9m0000gn/T//ccLmj4mt.s 			page 46


 1437              		.loc 1 316 16 view .LVU342
 1438 00c8 052B     		cmp	r3, #5
 1439 00ca 9FD1     		bne	.L58
 318:Core/Src/main.c ****             }
 1440              		.loc 1 318 17 is_stmt 1 view .LVU343
 1441 00cc 2A49     		ldr	r1, .L75+20
 1442 00ce 2F48     		ldr	r0, .L75+40
 1443 00d0 FFF7FEFF 		bl	update_buffer
 1444              	.LVL138:
 1445 00d4 9AE7     		b	.L58
 1446              	.L67:
 322:Core/Src/main.c ****             conductivity[1] = rx_buffer[1];
 1447              		.loc 1 322 13 view .LVU344
 322:Core/Src/main.c ****             conductivity[1] = rx_buffer[1];
 1448              		.loc 1 322 40 is_stmt 0 view .LVU345
 1449 00d6 274A     		ldr	r2, .L75+16
 1450 00d8 1178     		ldrb	r1, [r2]
 322:Core/Src/main.c ****             conductivity[1] = rx_buffer[1];
 1451              		.loc 1 322 29 view .LVU346
 1452 00da 2E4B     		ldr	r3, .L75+48
 1453 00dc 1970     		strb	r1, [r3]
 323:Core/Src/main.c ****             conductivity[2] = rx_buffer[2];
 1454              		.loc 1 323 13 is_stmt 1 view .LVU347
 323:Core/Src/main.c ****             conductivity[2] = rx_buffer[2];
 1455              		.loc 1 323 40 is_stmt 0 view .LVU348
 1456 00de 5178     		ldrb	r1, [r2, #1]
 323:Core/Src/main.c ****             conductivity[2] = rx_buffer[2];
 1457              		.loc 1 323 29 view .LVU349
 1458 00e0 5970     		strb	r1, [r3, #1]
 324:Core/Src/main.c ****             if (display_mode == DISPLAY_CONDUCTIVITY)
 1459              		.loc 1 324 13 is_stmt 1 view .LVU350
 324:Core/Src/main.c ****             if (display_mode == DISPLAY_CONDUCTIVITY)
 1460              		.loc 1 324 40 is_stmt 0 view .LVU351
 1461 00e2 9278     		ldrb	r2, [r2, #2]
 324:Core/Src/main.c ****             if (display_mode == DISPLAY_CONDUCTIVITY)
 1462              		.loc 1 324 29 view .LVU352
 1463 00e4 9A70     		strb	r2, [r3, #2]
 325:Core/Src/main.c ****             {
 1464              		.loc 1 325 13 is_stmt 1 view .LVU353
 325:Core/Src/main.c ****             {
 1465              		.loc 1 325 30 is_stmt 0 view .LVU354
 1466 00e6 254B     		ldr	r3, .L75+24
 1467 00e8 1B78     		ldrb	r3, [r3]
 325:Core/Src/main.c ****             {
 1468              		.loc 1 325 16 view .LVU355
 1469 00ea 042B     		cmp	r3, #4
 1470 00ec 00D0     		beq	.LCB1180
 1471 00ee 8DE7     		b	.L58	@long jump
 1472              	.LCB1180:
 327:Core/Src/main.c ****             }
 1473              		.loc 1 327 17 is_stmt 1 view .LVU356
 1474 00f0 2849     		ldr	r1, .L75+48
 1475 00f2 2648     		ldr	r0, .L75+40
 1476 00f4 FFF7FEFF 		bl	update_buffer
 1477              	.LVL139:
 1478 00f8 88E7     		b	.L58
 1479              	.L68:
ARM GAS  /var/folders/rj/9n9dpytj2n74_jwlj_p0xk9m0000gn/T//ccLmj4mt.s 			page 47


 331:Core/Src/main.c ****             resistance[1] = rx_buffer[1];
 1480              		.loc 1 331 13 view .LVU357
 331:Core/Src/main.c ****             resistance[1] = rx_buffer[1];
 1481              		.loc 1 331 38 is_stmt 0 view .LVU358
 1482 00fa 1E4A     		ldr	r2, .L75+16
 1483 00fc 1178     		ldrb	r1, [r2]
 331:Core/Src/main.c ****             resistance[1] = rx_buffer[1];
 1484              		.loc 1 331 27 view .LVU359
 1485 00fe 264B     		ldr	r3, .L75+52
 1486 0100 1970     		strb	r1, [r3]
 332:Core/Src/main.c ****             resistance[2] = rx_buffer[2];
 1487              		.loc 1 332 13 is_stmt 1 view .LVU360
 332:Core/Src/main.c ****             resistance[2] = rx_buffer[2];
 1488              		.loc 1 332 38 is_stmt 0 view .LVU361
 1489 0102 5178     		ldrb	r1, [r2, #1]
 332:Core/Src/main.c ****             resistance[2] = rx_buffer[2];
 1490              		.loc 1 332 27 view .LVU362
 1491 0104 5970     		strb	r1, [r3, #1]
 333:Core/Src/main.c ****             if (display_mode == DISPLAY_RESISTANCE)
 1492              		.loc 1 333 13 is_stmt 1 view .LVU363
 333:Core/Src/main.c ****             if (display_mode == DISPLAY_RESISTANCE)
 1493              		.loc 1 333 38 is_stmt 0 view .LVU364
 1494 0106 9278     		ldrb	r2, [r2, #2]
 333:Core/Src/main.c ****             if (display_mode == DISPLAY_RESISTANCE)
 1495              		.loc 1 333 27 view .LVU365
 1496 0108 9A70     		strb	r2, [r3, #2]
 334:Core/Src/main.c ****             {
 1497              		.loc 1 334 13 is_stmt 1 view .LVU366
 334:Core/Src/main.c ****             {
 1498              		.loc 1 334 30 is_stmt 0 view .LVU367
 1499 010a 1C4B     		ldr	r3, .L75+24
 1500 010c 1B78     		ldrb	r3, [r3]
 334:Core/Src/main.c ****             {
 1501              		.loc 1 334 16 view .LVU368
 1502 010e 032B     		cmp	r3, #3
 1503 0110 00D0     		beq	.LCB1204
 1504 0112 7BE7     		b	.L58	@long jump
 1505              	.LCB1204:
 336:Core/Src/main.c ****             }
 1506              		.loc 1 336 17 is_stmt 1 view .LVU369
 1507 0114 2049     		ldr	r1, .L75+52
 1508 0116 1D48     		ldr	r0, .L75+40
 1509 0118 FFF7FEFF 		bl	update_buffer
 1510              	.LVL140:
 1511 011c 76E7     		b	.L58
 1512              	.L63:
 341:Core/Src/main.c ****             {
 1513              		.loc 1 341 13 view .LVU370
 341:Core/Src/main.c ****             {
 1514              		.loc 1 341 26 is_stmt 0 view .LVU371
 1515 011e 154B     		ldr	r3, .L75+16
 1516 0120 1B78     		ldrb	r3, [r3]
 341:Core/Src/main.c ****             {
 1517              		.loc 1 341 16 view .LVU372
 1518 0122 002B     		cmp	r3, #0
 1519 0124 00D0     		beq	.LCB1217
 1520 0126 71E7     		b	.L58	@long jump
ARM GAS  /var/folders/rj/9n9dpytj2n74_jwlj_p0xk9m0000gn/T//ccLmj4mt.s 			page 48


 1521              	.LCB1217:
 343:Core/Src/main.c ****                 rs485_transmit((uint8_t *)&probe_config, CONFIG_PACKET_SIZE);
 1522              		.loc 1 343 17 is_stmt 1 view .LVU373
 343:Core/Src/main.c ****                 rs485_transmit((uint8_t *)&probe_config, CONFIG_PACKET_SIZE);
 1523              		.loc 1 343 36 is_stmt 0 view .LVU374
 1524 0128 104B     		ldr	r3, .L75+8
 1525 012a 0122     		movs	r2, #1
 1526 012c 1A70     		strb	r2, [r3]
 344:Core/Src/main.c ****             }
 1527              		.loc 1 344 17 is_stmt 1 view .LVU375
 1528 012e 1B48     		ldr	r0, .L75+56
 1529 0130 1421     		movs	r1, #20
 1530 0132 FFF7FEFF 		bl	rs485_transmit
 1531              	.LVL141:
 1532 0136 69E7     		b	.L58
 1533              	.L61:
 348:Core/Src/main.c ****             {
 1534              		.loc 1 348 13 view .LVU376
 348:Core/Src/main.c ****             {
 1535              		.loc 1 348 26 is_stmt 0 view .LVU377
 1536 0138 0E4B     		ldr	r3, .L75+16
 1537 013a 1B78     		ldrb	r3, [r3]
 348:Core/Src/main.c ****             {
 1538              		.loc 1 348 16 view .LVU378
 1539 013c 002B     		cmp	r3, #0
 1540 013e 00D0     		beq	.LCB1234
 1541 0140 64E7     		b	.L58	@long jump
 1542              	.LCB1234:
 350:Core/Src/main.c ****                 rs485_transmit((uint8_t *)&calib_salinity, 2);
 1543              		.loc 1 350 17 is_stmt 1 view .LVU379
 350:Core/Src/main.c ****                 rs485_transmit((uint8_t *)&calib_salinity, 2);
 1544              		.loc 1 350 36 is_stmt 0 view .LVU380
 1545 0142 0A4B     		ldr	r3, .L75+8
 1546 0144 0922     		movs	r2, #9
 1547 0146 1A70     		strb	r2, [r3]
 351:Core/Src/main.c ****                 rs485_receive_IT(sizeof(uint32_t));
 1548              		.loc 1 351 17 is_stmt 1 view .LVU381
 1549 0148 1548     		ldr	r0, .L75+60
 1550 014a 0221     		movs	r1, #2
 1551 014c FFF7FEFF 		bl	rs485_transmit
 1552              	.LVL142:
 352:Core/Src/main.c ****             }
 1553              		.loc 1 352 17 view .LVU382
 1554 0150 0420     		movs	r0, #4
 1555 0152 FFF7FEFF 		bl	rs485_receive_IT
 1556              	.LVL143:
 1557 0156 59E7     		b	.L58
 1558              	.L64:
 356:Core/Src/main.c ****             probe_config.stardard_conductivity = standard_conductivity;
 1559              		.loc 1 356 13 view .LVU383
 356:Core/Src/main.c ****             probe_config.stardard_conductivity = standard_conductivity;
 1560              		.loc 1 356 22 is_stmt 0 view .LVU384
 1561 0158 064B     		ldr	r3, .L75+16
 1562 015a 1A68     		ldr	r2, [r3]
 1563              	.LVL144:
 357:Core/Src/main.c ****             // write std cnd to sd card.
 1564              		.loc 1 357 13 is_stmt 1 view .LVU385
ARM GAS  /var/folders/rj/9n9dpytj2n74_jwlj_p0xk9m0000gn/T//ccLmj4mt.s 			page 49


 357:Core/Src/main.c ****             // write std cnd to sd card.
 1565              		.loc 1 357 48 is_stmt 0 view .LVU386
 1566 015c 0F4B     		ldr	r3, .L75+56
 1567 015e DA60     		str	r2, [r3, #12]
 359:Core/Src/main.c **** 
 1568              		.loc 1 359 13 is_stmt 1 view .LVU387
 1569              	.LBE8:
 370:Core/Src/main.c **** 
 1570              		.loc 1 370 1 is_stmt 0 view .LVU388
 1571 0160 54E7     		b	.L58
 1572              	.L76:
 1573 0162 C046     		.align	2
 1574              	.L75:
 1575 0164 00380140 		.word	1073821696
 1576 0168 00140048 		.word	1207964672
 1577 016c 00000000 		.word	expecting_response
 1578 0170 00000000 		.word	.L62
 1579 0174 00000000 		.word	rx_buffer
 1580 0178 00000000 		.word	salinity
 1581 017c 00000000 		.word	display_mode
 1582 0180 00000000 		.word	.LC27
 1583 0184 00000000 		.word	salinity_dma_buff
 1584 0188 00000000 		.word	temperature
 1585 018c 00000000 		.word	depth_dma_buff
 1586 0190 00000000 		.word	depth
 1587 0194 00000000 		.word	conductivity
 1588 0198 00000000 		.word	resistance
 1589 019c 00000000 		.word	probe_config
 1590 01a0 00000000 		.word	calib_salinity
 1591              		.cfi_endproc
 1592              	.LFE46:
 1594              		.section	.rodata.HAL_GPIO_EXTI_Callback.str1.4,"aMS",%progbits,1
 1595              		.align	2
 1596              	.LC36:
 1597 0000 00       		.ascii	"\000"
 1598              		.section	.text.HAL_GPIO_EXTI_Callback,"ax",%progbits
 1599              		.align	1
 1600              		.global	HAL_GPIO_EXTI_Callback
 1601              		.syntax unified
 1602              		.code	16
 1603              		.thumb_func
 1605              	HAL_GPIO_EXTI_Callback:
 1606              	.LVL145:
 1607              	.LFB47:
 373:Core/Src/main.c ****     uint8_t command[] = {0}, data[] = {0, 0, 0};
 1608              		.loc 1 373 1 is_stmt 1 view -0
 1609              		.cfi_startproc
 1610              		@ args = 0, pretend = 0, frame = 8
 1611              		@ frame_needed = 0, uses_anonymous_args = 0
 373:Core/Src/main.c ****     uint8_t command[] = {0}, data[] = {0, 0, 0};
 1612              		.loc 1 373 1 is_stmt 0 view .LVU390
 1613 0000 30B5     		push	{r4, r5, lr}
 1614              		.cfi_def_cfa_offset 12
 1615              		.cfi_offset 4, -12
 1616              		.cfi_offset 5, -8
 1617              		.cfi_offset 14, -4
 1618 0002 83B0     		sub	sp, sp, #12
ARM GAS  /var/folders/rj/9n9dpytj2n74_jwlj_p0xk9m0000gn/T//ccLmj4mt.s 			page 50


 1619              		.cfi_def_cfa_offset 24
 1620 0004 0400     		movs	r4, r0
 374:Core/Src/main.c ****     int8_t change;
 1621              		.loc 1 374 5 is_stmt 1 view .LVU391
 374:Core/Src/main.c ****     int8_t change;
 1622              		.loc 1 374 13 is_stmt 0 view .LVU392
 1623 0006 E54B     		ldr	r3, .L126
 1624 0008 1A78     		ldrb	r2, [r3]
 1625 000a 01AB     		add	r3, sp, #4
 1626 000c 1A70     		strb	r2, [r3]
 374:Core/Src/main.c ****     int8_t change;
 1627              		.loc 1 374 30 view .LVU393
 1628 000e 0322     		movs	r2, #3
 1629 0010 0021     		movs	r1, #0
 1630 0012 6846     		mov	r0, sp
 1631              	.LVL146:
 374:Core/Src/main.c ****     int8_t change;
 1632              		.loc 1 374 30 view .LVU394
 1633 0014 FFF7FEFF 		bl	memset
 1634              	.LVL147:
 375:Core/Src/main.c ****     switch (GPIO_Pin)
 1635              		.loc 1 375 5 is_stmt 1 view .LVU395
 376:Core/Src/main.c ****     {
 1636              		.loc 1 376 5 view .LVU396
 1637 0018 202C     		cmp	r4, #32
 1638 001a 00D1     		bne	.LCB1309
 1639 001c A3E2     		b	.L78	@long jump
 1640              	.LCB1309:
 1641 001e 19D9     		bls	.L125
 1642 0020 402C     		cmp	r4, #64
 1643 0022 00D1     		bne	.LCB1313
 1644 0024 93E1     		b	.L83	@long jump
 1645              	.LCB1313:
 1646 0026 8023     		movs	r3, #128
 1647 0028 DB00     		lsls	r3, r3, #3
 1648 002a 9C42     		cmp	r4, r3
 1649 002c 00D0     		beq	.LCB1317
 1650 002e A2E2     		b	.L77	@long jump
 1651              	.LCB1317:
 1652              	.LBB9:
 449:Core/Src/main.c ****         switch (display_mode)
 1653              		.loc 1 449 9 view .LVU397
 449:Core/Src/main.c ****         switch (display_mode)
 1654              		.loc 1 449 18 is_stmt 0 view .LVU398
 1655 0030 0220     		movs	r0, #2
 1656 0032 FFF7FEFF 		bl	get_digit
 1657              	.LVL148:
 449:Core/Src/main.c ****         switch (display_mode)
 1658              		.loc 1 449 18 discriminator 1 view .LVU399
 1659 0036 DA49     		ldr	r1, .L126+4
 1660 0038 FFF7FEFF 		bl	get_change
 1661              	.LVL149:
 1662 003c 0400     		movs	r4, r0
 1663              	.LVL150:
 450:Core/Src/main.c ****         {
 1664              		.loc 1 450 9 is_stmt 1 view .LVU400
 1665 003e D94B     		ldr	r3, .L126+8
ARM GAS  /var/folders/rj/9n9dpytj2n74_jwlj_p0xk9m0000gn/T//ccLmj4mt.s 			page 51


 1666 0040 1B78     		ldrb	r3, [r3]
 1667 0042 063B     		subs	r3, r3, #6
 1668 0044 DAB2     		uxtb	r2, r3
 1669 0046 082A     		cmp	r2, #8
 1670 0048 00D9     		bls	.LCB1333
 1671 004a 94E2     		b	.L77	@long jump
 1672              	.LCB1333:
 1673 004c 9300     		lsls	r3, r2, #2
 1674 004e D64A     		ldr	r2, .L126+12
 1675 0050 D358     		ldr	r3, [r2, r3]
 1676 0052 9F46     		mov	pc, r3
 1677              		.section	.rodata.HAL_GPIO_EXTI_Callback,"a",%progbits
 1678              		.align	2
 1679              	.L101:
 1680 0000 00020000 		.word	.L108
 1681 0004 3A020000 		.word	.L107
 1682 0008 74020000 		.word	.L106
 1683 000c A2020000 		.word	.L105
 1684 0010 D0020000 		.word	.L104
 1685 0014 F0020000 		.word	.L103
 1686 0018 10030000 		.word	.L102
 1687 001c 76050000 		.word	.L77
 1688 0020 2E030000 		.word	.L100
 1689              		.section	.text.HAL_GPIO_EXTI_Callback
 1690              	.LVL151:
 1691              	.L125:
 450:Core/Src/main.c ****         {
 1692              		.loc 1 450 9 is_stmt 0 view .LVU401
 1693              	.LBE9:
 376:Core/Src/main.c ****     {
 1694              		.loc 1 376 5 view .LVU402
 1695 0054 042C     		cmp	r4, #4
 1696 0056 0BD0     		beq	.L80
 1697 0058 102C     		cmp	r4, #16
 1698 005a 00D0     		beq	.LCB1350
 1699 005c 8BE2     		b	.L77	@long jump
 1700              	.LCB1350:
 1701              	.LBB10:
 529:Core/Src/main.c ****         {
 1702              		.loc 1 529 9 is_stmt 1 view .LVU403
 1703 005e D14B     		ldr	r3, .L126+8
 1704 0060 1B78     		ldrb	r3, [r3]
 1705 0062 0E2B     		cmp	r3, #14
 1706 0064 00D9     		bls	.LCB1356
 1707 0066 86E2     		b	.L77	@long jump
 1708              	.LCB1356:
 1709 0068 9B00     		lsls	r3, r3, #2
 1710 006a D04A     		ldr	r2, .L126+16
 1711 006c D358     		ldr	r3, [r2, r3]
 1712 006e 9F46     		mov	pc, r3
 1713              		.section	.rodata.HAL_GPIO_EXTI_Callback
 1714              		.align	2
 1715              	.L117:
 1716 0024 96040000 		.word	.L124
 1717 0028 B0040000 		.word	.L123
 1718 002c CA040000 		.word	.L122
 1719 0030 18050000 		.word	.L121
ARM GAS  /var/folders/rj/9n9dpytj2n74_jwlj_p0xk9m0000gn/T//ccLmj4mt.s 			page 52


 1720 0034 FE040000 		.word	.L120
 1721 0038 E4040000 		.word	.L119
 1722 003c 32050000 		.word	.L118
 1723 0040 32050000 		.word	.L118
 1724 0044 32050000 		.word	.L118
 1725 0048 32050000 		.word	.L118
 1726 004c 32050000 		.word	.L118
 1727 0050 32050000 		.word	.L118
 1728 0054 76050000 		.word	.L77
 1729 0058 32050000 		.word	.L118
 1730 005c 4C050000 		.word	.L116
 1731              		.section	.text.HAL_GPIO_EXTI_Callback
 1732              	.L80:
 379:Core/Src/main.c ****         change = get_change(dig, &dig1);
 1733              		.loc 1 379 9 view .LVU404
 379:Core/Src/main.c ****         change = get_change(dig, &dig1);
 1734              		.loc 1 379 23 is_stmt 0 view .LVU405
 1735 0070 0120     		movs	r0, #1
 1736 0072 FFF7FEFF 		bl	get_digit
 1737              	.LVL152:
 380:Core/Src/main.c ****         display_mode = (display_mode + change + Display_Mode_MAX) % Display_Mode_MAX;
 1738              		.loc 1 380 9 is_stmt 1 view .LVU406
 380:Core/Src/main.c ****         display_mode = (display_mode + change + Display_Mode_MAX) % Display_Mode_MAX;
 1739              		.loc 1 380 18 is_stmt 0 view .LVU407
 1740 0076 CE49     		ldr	r1, .L126+20
 1741 0078 FFF7FEFF 		bl	get_change
 1742              	.LVL153:
 381:Core/Src/main.c **** 
 1743              		.loc 1 381 9 is_stmt 1 view .LVU408
 381:Core/Src/main.c **** 
 1744              		.loc 1 381 38 is_stmt 0 view .LVU409
 1745 007c C94D     		ldr	r5, .L126+8
 1746 007e 2B78     		ldrb	r3, [r5]
 1747 0080 1818     		adds	r0, r3, r0
 1748              	.LVL154:
 381:Core/Src/main.c **** 
 1749              		.loc 1 381 47 view .LVU410
 1750 0082 0F30     		adds	r0, r0, #15
 381:Core/Src/main.c **** 
 1751              		.loc 1 381 67 view .LVU411
 1752 0084 0F21     		movs	r1, #15
 1753 0086 FFF7FEFF 		bl	__aeabi_idivmod
 1754              	.LVL155:
 1755 008a 0B00     		movs	r3, r1
 1756 008c CCB2     		uxtb	r4, r1
 381:Core/Src/main.c **** 
 1757              		.loc 1 381 22 view .LVU412
 1758 008e 2C70     		strb	r4, [r5]
 383:Core/Src/main.c ****         salinity_dma_buff[1] = display_values[display_mode][1];
 1759              		.loc 1 383 9 is_stmt 1 view .LVU413
 1760 0090 FF21     		movs	r1, #255
 1761 0092 1940     		ands	r1, r3
 383:Core/Src/main.c ****         salinity_dma_buff[1] = display_values[display_mode][1];
 1762              		.loc 1 383 60 is_stmt 0 view .LVU414
 1763 0094 C74B     		ldr	r3, .L126+24
 1764 0096 4A00     		lsls	r2, r1, #1
 1765 0098 5018     		adds	r0, r2, r1
ARM GAS  /var/folders/rj/9n9dpytj2n74_jwlj_p0xk9m0000gn/T//ccLmj4mt.s 			page 53


 1766 009a 8000     		lsls	r0, r0, #2
 1767 009c C058     		ldr	r0, [r0, r3]
 383:Core/Src/main.c ****         salinity_dma_buff[1] = display_values[display_mode][1];
 1768              		.loc 1 383 30 view .LVU415
 1769 009e C64D     		ldr	r5, .L126+28
 1770 00a0 2860     		str	r0, [r5]
 384:Core/Src/main.c ****         salinity_dma_buff[2] = display_values[display_mode][2];
 1771              		.loc 1 384 9 is_stmt 1 view .LVU416
 384:Core/Src/main.c ****         salinity_dma_buff[2] = display_values[display_mode][2];
 1772              		.loc 1 384 60 is_stmt 0 view .LVU417
 1773 00a2 5018     		adds	r0, r2, r1
 1774 00a4 8000     		lsls	r0, r0, #2
 1775 00a6 1818     		adds	r0, r3, r0
 1776 00a8 4068     		ldr	r0, [r0, #4]
 384:Core/Src/main.c ****         salinity_dma_buff[2] = display_values[display_mode][2];
 1777              		.loc 1 384 30 view .LVU418
 1778 00aa 6860     		str	r0, [r5, #4]
 385:Core/Src/main.c **** 
 1779              		.loc 1 385 9 is_stmt 1 view .LVU419
 385:Core/Src/main.c **** 
 1780              		.loc 1 385 60 is_stmt 0 view .LVU420
 1781 00ac 5218     		adds	r2, r2, r1
 1782 00ae 9200     		lsls	r2, r2, #2
 1783 00b0 9B18     		adds	r3, r3, r2
 1784 00b2 9B68     		ldr	r3, [r3, #8]
 385:Core/Src/main.c **** 
 1785              		.loc 1 385 30 view .LVU421
 1786 00b4 AB60     		str	r3, [r5, #8]
 387:Core/Src/main.c ****         {
 1787              		.loc 1 387 9 is_stmt 1 view .LVU422
 1788 00b6 0E2C     		cmp	r4, #14
 1789 00b8 00D9     		bls	.LCB1413
 1790 00ba 5CE2     		b	.L77	@long jump
 1791              	.LCB1413:
 1792 00bc A400     		lsls	r4, r4, #2
 1793 00be BF4B     		ldr	r3, .L126+32
 1794 00c0 1B59     		ldr	r3, [r3, r4]
 1795 00c2 9F46     		mov	pc, r3
 1796              		.section	.rodata.HAL_GPIO_EXTI_Callback
 1797              		.align	2
 1798              	.L86:
 1799 0060 C4000000 		.word	.L99
 1800 0064 D6000000 		.word	.L98
 1801 0068 E0000000 		.word	.L97
 1802 006c FE000000 		.word	.L96
 1803 0070 F4000000 		.word	.L95
 1804 0074 EA000000 		.word	.L94
 1805 0078 08010000 		.word	.L93
 1806 007c 30010000 		.word	.L92
 1807 0080 58010000 		.word	.L91
 1808 0084 64010000 		.word	.L90
 1809 0088 70010000 		.word	.L89
 1810 008c AA010000 		.word	.L88
 1811 0090 76050000 		.word	.L77
 1812 0094 E4010000 		.word	.L87
 1813 0098 F4010000 		.word	.L85
 1814              		.section	.text.HAL_GPIO_EXTI_Callback
ARM GAS  /var/folders/rj/9n9dpytj2n74_jwlj_p0xk9m0000gn/T//ccLmj4mt.s 			page 54


 1815              	.L99:
 390:Core/Src/main.c ****             update_buffer(depth_dma_buff, depth);
 1816              		.loc 1 390 13 view .LVU423
 1817 00c4 BE49     		ldr	r1, .L126+36
 1818 00c6 BC48     		ldr	r0, .L126+28
 1819 00c8 FFF7FEFF 		bl	update_buffer
 1820              	.LVL156:
 391:Core/Src/main.c ****             break;
 1821              		.loc 1 391 13 view .LVU424
 1822 00cc BD49     		ldr	r1, .L126+40
 1823 00ce BE48     		ldr	r0, .L126+44
 1824 00d0 FFF7FEFF 		bl	update_buffer
 1825              	.LVL157:
 392:Core/Src/main.c ****         case DISPLAY_TEMPERATURE:
 1826              		.loc 1 392 13 view .LVU425
 1827 00d4 4FE2     		b	.L77
 1828              	.L98:
 394:Core/Src/main.c ****             break;
 1829              		.loc 1 394 13 view .LVU426
 1830 00d6 BD49     		ldr	r1, .L126+48
 1831 00d8 BB48     		ldr	r0, .L126+44
 1832 00da FFF7FEFF 		bl	update_buffer
 1833              	.LVL158:
 395:Core/Src/main.c ****         case DISPLAY_DEPTH:
 1834              		.loc 1 395 13 view .LVU427
 1835 00de 4AE2     		b	.L77
 1836              	.L97:
 397:Core/Src/main.c ****             break;
 1837              		.loc 1 397 13 view .LVU428
 1838 00e0 B849     		ldr	r1, .L126+40
 1839 00e2 B948     		ldr	r0, .L126+44
 1840 00e4 FFF7FEFF 		bl	update_buffer
 1841              	.LVL159:
 398:Core/Src/main.c ****         case DISPLAY_SALINITY:
 1842              		.loc 1 398 13 view .LVU429
 1843 00e8 45E2     		b	.L77
 1844              	.L94:
 400:Core/Src/main.c ****             break;
 1845              		.loc 1 400 13 view .LVU430
 1846 00ea B549     		ldr	r1, .L126+36
 1847 00ec B648     		ldr	r0, .L126+44
 1848 00ee FFF7FEFF 		bl	update_buffer
 1849              	.LVL160:
 401:Core/Src/main.c ****         case DISPLAY_CONDUCTIVITY:
 1850              		.loc 1 401 13 view .LVU431
 1851 00f2 40E2     		b	.L77
 1852              	.L95:
 403:Core/Src/main.c ****             break;
 1853              		.loc 1 403 13 view .LVU432
 1854 00f4 B649     		ldr	r1, .L126+52
 1855 00f6 B448     		ldr	r0, .L126+44
 1856 00f8 FFF7FEFF 		bl	update_buffer
 1857              	.LVL161:
 404:Core/Src/main.c ****         case DISPLAY_RESISTANCE:
 1858              		.loc 1 404 13 view .LVU433
 1859 00fc 3BE2     		b	.L77
 1860              	.L96:
ARM GAS  /var/folders/rj/9n9dpytj2n74_jwlj_p0xk9m0000gn/T//ccLmj4mt.s 			page 55


 406:Core/Src/main.c ****             break;
 1861              		.loc 1 406 13 view .LVU434
 1862 00fe B549     		ldr	r1, .L126+56
 1863 0100 B148     		ldr	r0, .L126+44
 1864 0102 FFF7FEFF 		bl	update_buffer
 1865              	.LVL162:
 407:Core/Src/main.c ****         case DISPLAY_CONFIG_ELECTRODE:
 1866              		.loc 1 407 13 view .LVU435
 1867 0106 36E2     		b	.L77
 1868              	.L93:
 409:Core/Src/main.c ****             depth_dma_buff[1] = display_electrode_type[probe_config.electrode][1];
 1869              		.loc 1 409 13 view .LVU436
 409:Core/Src/main.c ****             depth_dma_buff[1] = display_electrode_type[probe_config.electrode][1];
 1870              		.loc 1 409 68 is_stmt 0 view .LVU437
 1871 0108 B34B     		ldr	r3, .L126+60
 1872 010a 1878     		ldrb	r0, [r3]
 409:Core/Src/main.c ****             depth_dma_buff[1] = display_electrode_type[probe_config.electrode][1];
 1873              		.loc 1 409 79 view .LVU438
 1874 010c B34B     		ldr	r3, .L126+64
 1875 010e 4200     		lsls	r2, r0, #1
 1876 0110 1118     		adds	r1, r2, r0
 1877 0112 8900     		lsls	r1, r1, #2
 1878 0114 C958     		ldr	r1, [r1, r3]
 409:Core/Src/main.c ****             depth_dma_buff[1] = display_electrode_type[probe_config.electrode][1];
 1879              		.loc 1 409 31 view .LVU439
 1880 0116 AC4C     		ldr	r4, .L126+44
 1881 0118 2160     		str	r1, [r4]
 410:Core/Src/main.c ****             depth_dma_buff[2] = display_electrode_type[probe_config.electrode][2];
 1882              		.loc 1 410 13 is_stmt 1 view .LVU440
 410:Core/Src/main.c ****             depth_dma_buff[2] = display_electrode_type[probe_config.electrode][2];
 1883              		.loc 1 410 79 is_stmt 0 view .LVU441
 1884 011a 1118     		adds	r1, r2, r0
 1885 011c 8900     		lsls	r1, r1, #2
 1886 011e 5918     		adds	r1, r3, r1
 1887 0120 4968     		ldr	r1, [r1, #4]
 410:Core/Src/main.c ****             depth_dma_buff[2] = display_electrode_type[probe_config.electrode][2];
 1888              		.loc 1 410 31 view .LVU442
 1889 0122 6160     		str	r1, [r4, #4]
 411:Core/Src/main.c ****             break;
 1890              		.loc 1 411 13 is_stmt 1 view .LVU443
 411:Core/Src/main.c ****             break;
 1891              		.loc 1 411 79 is_stmt 0 view .LVU444
 1892 0124 1218     		adds	r2, r2, r0
 1893 0126 9200     		lsls	r2, r2, #2
 1894 0128 9B18     		adds	r3, r3, r2
 1895 012a 9B68     		ldr	r3, [r3, #8]
 411:Core/Src/main.c ****             break;
 1896              		.loc 1 411 31 view .LVU445
 1897 012c A360     		str	r3, [r4, #8]
 412:Core/Src/main.c ****         case DISPLAY_CONFIG_R1:
 1898              		.loc 1 412 13 is_stmt 1 view .LVU446
 1899 012e 22E2     		b	.L77
 1900              	.L92:
 414:Core/Src/main.c ****             depth_dma_buff[1] = display_r1_type[probe_config.r1][1];
 1901              		.loc 1 414 13 view .LVU447
 414:Core/Src/main.c ****             depth_dma_buff[1] = display_r1_type[probe_config.r1][1];
 1902              		.loc 1 414 61 is_stmt 0 view .LVU448
ARM GAS  /var/folders/rj/9n9dpytj2n74_jwlj_p0xk9m0000gn/T//ccLmj4mt.s 			page 56


 1903 0130 A94B     		ldr	r3, .L126+60
 1904 0132 5878     		ldrb	r0, [r3, #1]
 414:Core/Src/main.c ****             depth_dma_buff[1] = display_r1_type[probe_config.r1][1];
 1905              		.loc 1 414 65 view .LVU449
 1906 0134 AA4B     		ldr	r3, .L126+68
 1907 0136 4200     		lsls	r2, r0, #1
 1908 0138 1118     		adds	r1, r2, r0
 1909 013a 8900     		lsls	r1, r1, #2
 1910 013c C958     		ldr	r1, [r1, r3]
 414:Core/Src/main.c ****             depth_dma_buff[1] = display_r1_type[probe_config.r1][1];
 1911              		.loc 1 414 31 view .LVU450
 1912 013e A24C     		ldr	r4, .L126+44
 1913 0140 2160     		str	r1, [r4]
 415:Core/Src/main.c ****             depth_dma_buff[2] = display_r1_type[probe_config.r1][2];
 1914              		.loc 1 415 13 is_stmt 1 view .LVU451
 415:Core/Src/main.c ****             depth_dma_buff[2] = display_r1_type[probe_config.r1][2];
 1915              		.loc 1 415 65 is_stmt 0 view .LVU452
 1916 0142 1118     		adds	r1, r2, r0
 1917 0144 8900     		lsls	r1, r1, #2
 1918 0146 5918     		adds	r1, r3, r1
 1919 0148 4968     		ldr	r1, [r1, #4]
 415:Core/Src/main.c ****             depth_dma_buff[2] = display_r1_type[probe_config.r1][2];
 1920              		.loc 1 415 31 view .LVU453
 1921 014a 6160     		str	r1, [r4, #4]
 416:Core/Src/main.c ****             break;
 1922              		.loc 1 416 13 is_stmt 1 view .LVU454
 416:Core/Src/main.c ****             break;
 1923              		.loc 1 416 65 is_stmt 0 view .LVU455
 1924 014c 1218     		adds	r2, r2, r0
 1925 014e 9200     		lsls	r2, r2, #2
 1926 0150 9B18     		adds	r3, r3, r2
 1927 0152 9B68     		ldr	r3, [r3, #8]
 416:Core/Src/main.c ****             break;
 1928              		.loc 1 416 31 view .LVU456
 1929 0154 A360     		str	r3, [r4, #8]
 417:Core/Src/main.c ****         case DISPLAY_CONFIG_VOLTAGE_START:
 1930              		.loc 1 417 13 is_stmt 1 view .LVU457
 1931 0156 0EE2     		b	.L77
 1932              	.L91:
 419:Core/Src/main.c ****             break;
 1933              		.loc 1 419 13 view .LVU458
 1934 0158 9F4B     		ldr	r3, .L126+60
 1935 015a 9988     		ldrh	r1, [r3, #4]
 1936 015c 9A48     		ldr	r0, .L126+44
 1937 015e FFF7FEFF 		bl	update_buffer_with_voltage
 1938              	.LVL163:
 420:Core/Src/main.c ****         case DISPLAY_CONFIG_VOLTAGE_END:
 1939              		.loc 1 420 13 view .LVU459
 1940 0162 08E2     		b	.L77
 1941              	.L90:
 422:Core/Src/main.c ****             break;
 1942              		.loc 1 422 13 view .LVU460
 1943 0164 9C4B     		ldr	r3, .L126+60
 1944 0166 D988     		ldrh	r1, [r3, #6]
 1945 0168 9748     		ldr	r0, .L126+44
 1946 016a FFF7FEFF 		bl	update_buffer_with_voltage
 1947              	.LVL164:
ARM GAS  /var/folders/rj/9n9dpytj2n74_jwlj_p0xk9m0000gn/T//ccLmj4mt.s 			page 57


 423:Core/Src/main.c ****         case DISPLAY_CONFIG_VOLTAGE_SAMPLES:
 1948              		.loc 1 423 13 view .LVU461
 1949 016e 02E2     		b	.L77
 1950              	.L89:
 425:Core/Src/main.c ****             data[1] = (probe_config.num_samples % 100) / 10;
 1951              		.loc 1 425 13 view .LVU462
 425:Core/Src/main.c ****             data[1] = (probe_config.num_samples % 100) / 10;
 1952              		.loc 1 425 35 is_stmt 0 view .LVU463
 1953 0170 994B     		ldr	r3, .L126+60
 1954 0172 1C89     		ldrh	r4, [r3, #8]
 425:Core/Src/main.c ****             data[1] = (probe_config.num_samples % 100) / 10;
 1955              		.loc 1 425 21 view .LVU464
 1956 0174 6421     		movs	r1, #100
 1957 0176 2000     		movs	r0, r4
 1958 0178 FFF7FEFF 		bl	__aeabi_uidiv
 1959              	.LVL165:
 1960 017c 6B46     		mov	r3, sp
 1961 017e 1870     		strb	r0, [r3]
 426:Core/Src/main.c ****             data[2] = probe_config.num_samples % 10;
 1962              		.loc 1 426 13 is_stmt 1 view .LVU465
 426:Core/Src/main.c ****             data[2] = probe_config.num_samples % 10;
 1963              		.loc 1 426 21 is_stmt 0 view .LVU466
 1964 0180 6421     		movs	r1, #100
 1965 0182 2000     		movs	r0, r4
 1966 0184 FFF7FEFF 		bl	__aeabi_uidivmod
 1967              	.LVL166:
 1968 0188 88B2     		uxth	r0, r1
 1969 018a 0A21     		movs	r1, #10
 1970 018c FFF7FEFF 		bl	__aeabi_uidiv
 1971              	.LVL167:
 1972 0190 6B46     		mov	r3, sp
 1973 0192 5870     		strb	r0, [r3, #1]
 427:Core/Src/main.c ****             update_buffer(depth_dma_buff, data);
 1974              		.loc 1 427 13 is_stmt 1 view .LVU467
 427:Core/Src/main.c ****             update_buffer(depth_dma_buff, data);
 1975              		.loc 1 427 21 is_stmt 0 view .LVU468
 1976 0194 0A21     		movs	r1, #10
 1977 0196 2000     		movs	r0, r4
 1978 0198 FFF7FEFF 		bl	__aeabi_uidivmod
 1979              	.LVL168:
 1980 019c 6B46     		mov	r3, sp
 1981 019e 9970     		strb	r1, [r3, #2]
 428:Core/Src/main.c ****             break;
 1982              		.loc 1 428 13 is_stmt 1 view .LVU469
 1983 01a0 8948     		ldr	r0, .L126+44
 1984 01a2 6946     		mov	r1, sp
 1985 01a4 FFF7FEFF 		bl	update_buffer
 1986              	.LVL169:
 429:Core/Src/main.c ****         case DISPLAY_CONFIG_ADC_SAMPLES:
 1987              		.loc 1 429 13 view .LVU470
 1988 01a8 E5E1     		b	.L77
 1989              	.L88:
 431:Core/Src/main.c ****             data[1] = (probe_config.adc_samples % 100) / 10;
 1990              		.loc 1 431 13 view .LVU471
 431:Core/Src/main.c ****             data[1] = (probe_config.adc_samples % 100) / 10;
 1991              		.loc 1 431 35 is_stmt 0 view .LVU472
 1992 01aa 8B4B     		ldr	r3, .L126+60
ARM GAS  /var/folders/rj/9n9dpytj2n74_jwlj_p0xk9m0000gn/T//ccLmj4mt.s 			page 58


 1993 01ac 5C89     		ldrh	r4, [r3, #10]
 431:Core/Src/main.c ****             data[1] = (probe_config.adc_samples % 100) / 10;
 1994              		.loc 1 431 21 view .LVU473
 1995 01ae 6421     		movs	r1, #100
 1996 01b0 2000     		movs	r0, r4
 1997 01b2 FFF7FEFF 		bl	__aeabi_uidiv
 1998              	.LVL170:
 1999 01b6 6B46     		mov	r3, sp
 2000 01b8 1870     		strb	r0, [r3]
 432:Core/Src/main.c ****             data[2] = probe_config.adc_samples % 10;
 2001              		.loc 1 432 13 is_stmt 1 view .LVU474
 432:Core/Src/main.c ****             data[2] = probe_config.adc_samples % 10;
 2002              		.loc 1 432 21 is_stmt 0 view .LVU475
 2003 01ba 6421     		movs	r1, #100
 2004 01bc 2000     		movs	r0, r4
 2005 01be FFF7FEFF 		bl	__aeabi_uidivmod
 2006              	.LVL171:
 2007 01c2 88B2     		uxth	r0, r1
 2008 01c4 0A21     		movs	r1, #10
 2009 01c6 FFF7FEFF 		bl	__aeabi_uidiv
 2010              	.LVL172:
 2011 01ca 6B46     		mov	r3, sp
 2012 01cc 5870     		strb	r0, [r3, #1]
 433:Core/Src/main.c ****             update_buffer(depth_dma_buff, data);
 2013              		.loc 1 433 13 is_stmt 1 view .LVU476
 433:Core/Src/main.c ****             update_buffer(depth_dma_buff, data);
 2014              		.loc 1 433 21 is_stmt 0 view .LVU477
 2015 01ce 0A21     		movs	r1, #10
 2016 01d0 2000     		movs	r0, r4
 2017 01d2 FFF7FEFF 		bl	__aeabi_uidivmod
 2018              	.LVL173:
 2019 01d6 6B46     		mov	r3, sp
 2020 01d8 9970     		strb	r1, [r3, #2]
 434:Core/Src/main.c ****             break;
 2021              		.loc 1 434 13 is_stmt 1 view .LVU478
 2022 01da 7B48     		ldr	r0, .L126+44
 2023 01dc 6946     		mov	r1, sp
 2024 01de FFF7FEFF 		bl	update_buffer
 2025              	.LVL174:
 435:Core/Src/main.c ****         case DISPLAY_CONFIG_SEND:
 2026              		.loc 1 435 13 view .LVU479
 2027 01e2 C8E1     		b	.L77
 2028              	.L87:
 437:Core/Src/main.c ****             depth_dma_buff[1] = 0xffff0000 | DIGIT_2_MASK | NEGATIVE_SIGN_MASK;
 2029              		.loc 1 437 13 view .LVU480
 437:Core/Src/main.c ****             depth_dma_buff[1] = 0xffff0000 | DIGIT_2_MASK | NEGATIVE_SIGN_MASK;
 2030              		.loc 1 437 31 is_stmt 0 view .LVU481
 2031 01e4 784B     		ldr	r3, .L126+44
 2032 01e6 7F4A     		ldr	r2, .L126+72
 2033 01e8 1A60     		str	r2, [r3]
 438:Core/Src/main.c ****             depth_dma_buff[2] = 0xffff0000 | DIGIT_3_MASK | NEGATIVE_SIGN_MASK;
 2034              		.loc 1 438 13 is_stmt 1 view .LVU482
 438:Core/Src/main.c ****             depth_dma_buff[2] = 0xffff0000 | DIGIT_3_MASK | NEGATIVE_SIGN_MASK;
 2035              		.loc 1 438 31 is_stmt 0 view .LVU483
 2036 01ea 7F4A     		ldr	r2, .L126+76
 2037 01ec 5A60     		str	r2, [r3, #4]
 439:Core/Src/main.c ****             break;
ARM GAS  /var/folders/rj/9n9dpytj2n74_jwlj_p0xk9m0000gn/T//ccLmj4mt.s 			page 59


 2038              		.loc 1 439 13 is_stmt 1 view .LVU484
 439:Core/Src/main.c ****             break;
 2039              		.loc 1 439 31 is_stmt 0 view .LVU485
 2040 01ee 7F4A     		ldr	r2, .L126+80
 2041 01f0 9A60     		str	r2, [r3, #8]
 440:Core/Src/main.c ****         case DISPLAY_CALIB:
 2042              		.loc 1 440 13 is_stmt 1 view .LVU486
 2043 01f2 C0E1     		b	.L77
 2044              	.L85:
 442:Core/Src/main.c ****             break;
 2045              		.loc 1 442 13 view .LVU487
 2046 01f4 7E4B     		ldr	r3, .L126+84
 2047 01f6 1988     		ldrh	r1, [r3]
 2048 01f8 7348     		ldr	r0, .L126+44
 2049 01fa FFF7FEFF 		bl	update_buffer_with_salinity
 2050              	.LVL175:
 443:Core/Src/main.c ****         default:
 2051              		.loc 1 443 13 view .LVU488
 2052 01fe BAE1     		b	.L77
 2053              	.LVL176:
 2054              	.L108:
 453:Core/Src/main.c ****             depth_dma_buff[0] = display_electrode_type[probe_config.electrode][0];
 2055              		.loc 1 453 13 view .LVU489
 453:Core/Src/main.c ****             depth_dma_buff[0] = display_electrode_type[probe_config.electrode][0];
 2056              		.loc 1 453 51 is_stmt 0 view .LVU490
 2057 0200 754D     		ldr	r5, .L126+60
 2058 0202 2878     		ldrb	r0, [r5]
 2059              	.LVL177:
 453:Core/Src/main.c ****             depth_dma_buff[0] = display_electrode_type[probe_config.electrode][0];
 2060              		.loc 1 453 62 view .LVU491
 2061 0204 2018     		adds	r0, r4, r0
 453:Core/Src/main.c ****             depth_dma_buff[0] = display_electrode_type[probe_config.electrode][0];
 2062              		.loc 1 453 71 view .LVU492
 2063 0206 0330     		adds	r0, r0, #3
 453:Core/Src/main.c ****             depth_dma_buff[0] = display_electrode_type[probe_config.electrode][0];
 2064              		.loc 1 453 93 view .LVU493
 2065 0208 0321     		movs	r1, #3
 2066 020a FFF7FEFF 		bl	__aeabi_idivmod
 2067              	.LVL178:
 2068 020e 0B00     		movs	r3, r1
 453:Core/Src/main.c ****             depth_dma_buff[0] = display_electrode_type[probe_config.electrode][0];
 2069              		.loc 1 453 36 view .LVU494
 2070 0210 2970     		strb	r1, [r5]
 454:Core/Src/main.c ****             depth_dma_buff[1] = display_electrode_type[probe_config.electrode][1];
 2071              		.loc 1 454 13 is_stmt 1 view .LVU495
 2072 0212 FF21     		movs	r1, #255
 2073 0214 1940     		ands	r1, r3
 454:Core/Src/main.c ****             depth_dma_buff[1] = display_electrode_type[probe_config.electrode][1];
 2074              		.loc 1 454 79 is_stmt 0 view .LVU496
 2075 0216 714B     		ldr	r3, .L126+64
 2076 0218 4A00     		lsls	r2, r1, #1
 2077 021a 5018     		adds	r0, r2, r1
 2078 021c 8000     		lsls	r0, r0, #2
 2079 021e C058     		ldr	r0, [r0, r3]
 454:Core/Src/main.c ****             depth_dma_buff[1] = display_electrode_type[probe_config.electrode][1];
 2080              		.loc 1 454 31 view .LVU497
 2081 0220 694C     		ldr	r4, .L126+44
ARM GAS  /var/folders/rj/9n9dpytj2n74_jwlj_p0xk9m0000gn/T//ccLmj4mt.s 			page 60


 2082 0222 2060     		str	r0, [r4]
 455:Core/Src/main.c ****             depth_dma_buff[2] = display_electrode_type[probe_config.electrode][2];
 2083              		.loc 1 455 13 is_stmt 1 view .LVU498
 455:Core/Src/main.c ****             depth_dma_buff[2] = display_electrode_type[probe_config.electrode][2];
 2084              		.loc 1 455 79 is_stmt 0 view .LVU499
 2085 0224 5018     		adds	r0, r2, r1
 2086 0226 8000     		lsls	r0, r0, #2
 2087 0228 1818     		adds	r0, r3, r0
 2088 022a 4068     		ldr	r0, [r0, #4]
 455:Core/Src/main.c ****             depth_dma_buff[2] = display_electrode_type[probe_config.electrode][2];
 2089              		.loc 1 455 31 view .LVU500
 2090 022c 6060     		str	r0, [r4, #4]
 456:Core/Src/main.c ****             break;
 2091              		.loc 1 456 13 is_stmt 1 view .LVU501
 456:Core/Src/main.c ****             break;
 2092              		.loc 1 456 79 is_stmt 0 view .LVU502
 2093 022e 5218     		adds	r2, r2, r1
 2094 0230 9200     		lsls	r2, r2, #2
 2095 0232 9B18     		adds	r3, r3, r2
 2096 0234 9B68     		ldr	r3, [r3, #8]
 456:Core/Src/main.c ****             break;
 2097              		.loc 1 456 31 view .LVU503
 2098 0236 A360     		str	r3, [r4, #8]
 457:Core/Src/main.c ****         case DISPLAY_CONFIG_R1:
 2099              		.loc 1 457 13 is_stmt 1 view .LVU504
 2100 0238 9DE1     		b	.L77
 2101              	.LVL179:
 2102              	.L107:
 459:Core/Src/main.c ****             depth_dma_buff[0] = display_r1_type[probe_config.r1][0];
 2103              		.loc 1 459 13 view .LVU505
 459:Core/Src/main.c ****             depth_dma_buff[0] = display_r1_type[probe_config.r1][0];
 2104              		.loc 1 459 44 is_stmt 0 view .LVU506
 2105 023a 674D     		ldr	r5, .L126+60
 2106 023c 6878     		ldrb	r0, [r5, #1]
 2107              	.LVL180:
 459:Core/Src/main.c ****             depth_dma_buff[0] = display_r1_type[probe_config.r1][0];
 2108              		.loc 1 459 48 view .LVU507
 2109 023e 2018     		adds	r0, r4, r0
 459:Core/Src/main.c ****             depth_dma_buff[0] = display_r1_type[probe_config.r1][0];
 2110              		.loc 1 459 57 view .LVU508
 2111 0240 0330     		adds	r0, r0, #3
 459:Core/Src/main.c ****             depth_dma_buff[0] = display_r1_type[probe_config.r1][0];
 2112              		.loc 1 459 72 view .LVU509
 2113 0242 0321     		movs	r1, #3
 2114 0244 FFF7FEFF 		bl	__aeabi_idivmod
 2115              	.LVL181:
 2116 0248 0B00     		movs	r3, r1
 459:Core/Src/main.c ****             depth_dma_buff[0] = display_r1_type[probe_config.r1][0];
 2117              		.loc 1 459 29 view .LVU510
 2118 024a 6970     		strb	r1, [r5, #1]
 460:Core/Src/main.c ****             depth_dma_buff[1] = display_r1_type[probe_config.r1][1];
 2119              		.loc 1 460 13 is_stmt 1 view .LVU511
 2120 024c FF21     		movs	r1, #255
 2121 024e 1940     		ands	r1, r3
 460:Core/Src/main.c ****             depth_dma_buff[1] = display_r1_type[probe_config.r1][1];
 2122              		.loc 1 460 65 is_stmt 0 view .LVU512
 2123 0250 634B     		ldr	r3, .L126+68
ARM GAS  /var/folders/rj/9n9dpytj2n74_jwlj_p0xk9m0000gn/T//ccLmj4mt.s 			page 61


 2124 0252 4A00     		lsls	r2, r1, #1
 2125 0254 5018     		adds	r0, r2, r1
 2126 0256 8000     		lsls	r0, r0, #2
 2127 0258 C058     		ldr	r0, [r0, r3]
 460:Core/Src/main.c ****             depth_dma_buff[1] = display_r1_type[probe_config.r1][1];
 2128              		.loc 1 460 31 view .LVU513
 2129 025a 5B4C     		ldr	r4, .L126+44
 2130 025c 2060     		str	r0, [r4]
 461:Core/Src/main.c ****             depth_dma_buff[2] = display_r1_type[probe_config.r1][2];
 2131              		.loc 1 461 13 is_stmt 1 view .LVU514
 461:Core/Src/main.c ****             depth_dma_buff[2] = display_r1_type[probe_config.r1][2];
 2132              		.loc 1 461 65 is_stmt 0 view .LVU515
 2133 025e 5018     		adds	r0, r2, r1
 2134 0260 8000     		lsls	r0, r0, #2
 2135 0262 1818     		adds	r0, r3, r0
 2136 0264 4068     		ldr	r0, [r0, #4]
 461:Core/Src/main.c ****             depth_dma_buff[2] = display_r1_type[probe_config.r1][2];
 2137              		.loc 1 461 31 view .LVU516
 2138 0266 6060     		str	r0, [r4, #4]
 462:Core/Src/main.c ****             break;
 2139              		.loc 1 462 13 is_stmt 1 view .LVU517
 462:Core/Src/main.c ****             break;
 2140              		.loc 1 462 65 is_stmt 0 view .LVU518
 2141 0268 5218     		adds	r2, r2, r1
 2142 026a 9200     		lsls	r2, r2, #2
 2143 026c 9B18     		adds	r3, r3, r2
 2144 026e 9B68     		ldr	r3, [r3, #8]
 462:Core/Src/main.c ****             break;
 2145              		.loc 1 462 31 view .LVU519
 2146 0270 A360     		str	r3, [r4, #8]
 463:Core/Src/main.c ****         case DISPLAY_CONFIG_VOLTAGE_START:
 2147              		.loc 1 463 13 is_stmt 1 view .LVU520
 2148 0272 80E1     		b	.L77
 2149              	.LVL182:
 2150              	.L106:
 465:Core/Src/main.c ****             probe_config.voltage_start = voltage_map[v_start];
 2151              		.loc 1 465 13 view .LVU521
 465:Core/Src/main.c ****             probe_config.voltage_start = voltage_map[v_start];
 2152              		.loc 1 465 41 is_stmt 0 view .LVU522
 2153 0274 8300     		lsls	r3, r0, #2
 2154 0276 1B18     		adds	r3, r3, r0
 2155 0278 5B00     		lsls	r3, r3, #1
 465:Core/Src/main.c ****             probe_config.voltage_start = voltage_map[v_start];
 2156              		.loc 1 465 32 view .LVU523
 2157 027a 5E4C     		ldr	r4, .L126+88
 2158 027c 2088     		ldrh	r0, [r4]
 2159              	.LVL183:
 465:Core/Src/main.c ****             probe_config.voltage_start = voltage_map[v_start];
 2160              		.loc 1 465 32 view .LVU524
 2161 027e C018     		adds	r0, r0, r3
 465:Core/Src/main.c ****             probe_config.voltage_start = voltage_map[v_start];
 2162              		.loc 1 465 46 view .LVU525
 2163 0280 4B30     		adds	r0, r0, #75
 2164 0282 FF30     		adds	r0, r0, #255
 465:Core/Src/main.c ****             probe_config.voltage_start = voltage_map[v_start];
 2165              		.loc 1 465 53 view .LVU526
 2166 0284 A521     		movs	r1, #165
ARM GAS  /var/folders/rj/9n9dpytj2n74_jwlj_p0xk9m0000gn/T//ccLmj4mt.s 			page 62


 2167 0286 4900     		lsls	r1, r1, #1
 2168 0288 FFF7FEFF 		bl	__aeabi_idivmod
 2169              	.LVL184:
 465:Core/Src/main.c ****             probe_config.voltage_start = voltage_map[v_start];
 2170              		.loc 1 465 21 view .LVU527
 2171 028c 2180     		strh	r1, [r4]
 466:Core/Src/main.c ****             update_buffer_with_voltage(depth_dma_buff, probe_config.voltage_start);
 2172              		.loc 1 466 13 is_stmt 1 view .LVU528
 466:Core/Src/main.c ****             update_buffer_with_voltage(depth_dma_buff, probe_config.voltage_start);
 2173              		.loc 1 466 53 is_stmt 0 view .LVU529
 2174 028e 5A4B     		ldr	r3, .L126+92
 2175 0290 0904     		lsls	r1, r1, #16
 2176 0292 C90B     		lsrs	r1, r1, #15
 2177 0294 C95A     		ldrh	r1, [r1, r3]
 466:Core/Src/main.c ****             update_buffer_with_voltage(depth_dma_buff, probe_config.voltage_start);
 2178              		.loc 1 466 40 view .LVU530
 2179 0296 504B     		ldr	r3, .L126+60
 2180 0298 9980     		strh	r1, [r3, #4]
 467:Core/Src/main.c ****             break;
 2181              		.loc 1 467 13 is_stmt 1 view .LVU531
 2182 029a 4B48     		ldr	r0, .L126+44
 2183 029c FFF7FEFF 		bl	update_buffer_with_voltage
 2184              	.LVL185:
 468:Core/Src/main.c ****         case DISPLAY_CONFIG_VOLTAGE_END:
 2185              		.loc 1 468 13 view .LVU532
 2186 02a0 69E1     		b	.L77
 2187              	.LVL186:
 2188              	.L105:
 470:Core/Src/main.c ****             probe_config.voltage_end = voltage_map[v_end];
 2189              		.loc 1 470 13 view .LVU533
 470:Core/Src/main.c ****             probe_config.voltage_end = voltage_map[v_end];
 2190              		.loc 1 470 37 is_stmt 0 view .LVU534
 2191 02a2 8300     		lsls	r3, r0, #2
 2192 02a4 1B18     		adds	r3, r3, r0
 2193 02a6 5B00     		lsls	r3, r3, #1
 470:Core/Src/main.c ****             probe_config.voltage_end = voltage_map[v_end];
 2194              		.loc 1 470 28 view .LVU535
 2195 02a8 544C     		ldr	r4, .L126+96
 2196 02aa 2088     		ldrh	r0, [r4]
 2197              	.LVL187:
 470:Core/Src/main.c ****             probe_config.voltage_end = voltage_map[v_end];
 2198              		.loc 1 470 28 view .LVU536
 2199 02ac C018     		adds	r0, r0, r3
 470:Core/Src/main.c ****             probe_config.voltage_end = voltage_map[v_end];
 2200              		.loc 1 470 42 view .LVU537
 2201 02ae 4B30     		adds	r0, r0, #75
 2202 02b0 FF30     		adds	r0, r0, #255
 470:Core/Src/main.c ****             probe_config.voltage_end = voltage_map[v_end];
 2203              		.loc 1 470 49 view .LVU538
 2204 02b2 A521     		movs	r1, #165
 2205 02b4 4900     		lsls	r1, r1, #1
 2206 02b6 FFF7FEFF 		bl	__aeabi_idivmod
 2207              	.LVL188:
 470:Core/Src/main.c ****             probe_config.voltage_end = voltage_map[v_end];
 2208              		.loc 1 470 19 view .LVU539
 2209 02ba 2180     		strh	r1, [r4]
 471:Core/Src/main.c ****             update_buffer_with_voltage(depth_dma_buff, probe_config.voltage_end);
ARM GAS  /var/folders/rj/9n9dpytj2n74_jwlj_p0xk9m0000gn/T//ccLmj4mt.s 			page 63


 2210              		.loc 1 471 13 is_stmt 1 view .LVU540
 471:Core/Src/main.c ****             update_buffer_with_voltage(depth_dma_buff, probe_config.voltage_end);
 2211              		.loc 1 471 51 is_stmt 0 view .LVU541
 2212 02bc 4E4B     		ldr	r3, .L126+92
 2213 02be 0904     		lsls	r1, r1, #16
 2214 02c0 C90B     		lsrs	r1, r1, #15
 2215 02c2 C95A     		ldrh	r1, [r1, r3]
 471:Core/Src/main.c ****             update_buffer_with_voltage(depth_dma_buff, probe_config.voltage_end);
 2216              		.loc 1 471 38 view .LVU542
 2217 02c4 444B     		ldr	r3, .L126+60
 2218 02c6 D980     		strh	r1, [r3, #6]
 472:Core/Src/main.c ****             break;
 2219              		.loc 1 472 13 is_stmt 1 view .LVU543
 2220 02c8 3F48     		ldr	r0, .L126+44
 2221 02ca FFF7FEFF 		bl	update_buffer_with_voltage
 2222              	.LVL189:
 473:Core/Src/main.c ****         case DISPLAY_CONFIG_VOLTAGE_SAMPLES:
 2223              		.loc 1 473 13 view .LVU544
 2224 02ce 52E1     		b	.L77
 2225              	.LVL190:
 2226              	.L104:
 475:Core/Src/main.c ****             update_buffer_with_int(depth_dma_buff, probe_config.num_samples);
 2227              		.loc 1 475 13 view .LVU545
 475:Core/Src/main.c ****             update_buffer_with_int(depth_dma_buff, probe_config.num_samples);
 2228              		.loc 1 475 53 is_stmt 0 view .LVU546
 2229 02d0 414D     		ldr	r5, .L126+60
 2230 02d2 2889     		ldrh	r0, [r5, #8]
 2231              	.LVL191:
 475:Core/Src/main.c ****             update_buffer_with_int(depth_dma_buff, probe_config.num_samples);
 2232              		.loc 1 475 75 view .LVU547
 2233 02d4 A300     		lsls	r3, r4, #2
 2234 02d6 1B19     		adds	r3, r3, r4
 2235 02d8 5B00     		lsls	r3, r3, #1
 475:Core/Src/main.c ****             update_buffer_with_int(depth_dma_buff, probe_config.num_samples);
 2236              		.loc 1 475 66 view .LVU548
 2237 02da C018     		adds	r0, r0, r3
 475:Core/Src/main.c ****             update_buffer_with_int(depth_dma_buff, probe_config.num_samples);
 2238              		.loc 1 475 81 view .LVU549
 2239 02dc FA21     		movs	r1, #250
 2240 02de 8900     		lsls	r1, r1, #2
 2241 02e0 FFF7FEFF 		bl	__aeabi_idivmod
 2242              	.LVL192:
 475:Core/Src/main.c ****             update_buffer_with_int(depth_dma_buff, probe_config.num_samples);
 2243              		.loc 1 475 38 view .LVU550
 2244 02e4 89B2     		uxth	r1, r1
 2245 02e6 2981     		strh	r1, [r5, #8]
 476:Core/Src/main.c ****             break;
 2246              		.loc 1 476 13 is_stmt 1 view .LVU551
 2247 02e8 3748     		ldr	r0, .L126+44
 2248 02ea FFF7FEFF 		bl	update_buffer_with_int
 2249              	.LVL193:
 477:Core/Src/main.c ****         case DISPLAY_CONFIG_ADC_SAMPLES:
 2250              		.loc 1 477 13 view .LVU552
 2251 02ee 42E1     		b	.L77
 2252              	.LVL194:
 2253              	.L103:
 479:Core/Src/main.c ****             update_buffer_with_int(depth_dma_buff, probe_config.adc_samples);
ARM GAS  /var/folders/rj/9n9dpytj2n74_jwlj_p0xk9m0000gn/T//ccLmj4mt.s 			page 64


 2254              		.loc 1 479 13 view .LVU553
 479:Core/Src/main.c ****             update_buffer_with_int(depth_dma_buff, probe_config.adc_samples);
 2255              		.loc 1 479 53 is_stmt 0 view .LVU554
 2256 02f0 394D     		ldr	r5, .L126+60
 2257 02f2 6889     		ldrh	r0, [r5, #10]
 2258              	.LVL195:
 479:Core/Src/main.c ****             update_buffer_with_int(depth_dma_buff, probe_config.adc_samples);
 2259              		.loc 1 479 75 view .LVU555
 2260 02f4 A300     		lsls	r3, r4, #2
 2261 02f6 1B19     		adds	r3, r3, r4
 2262 02f8 5B00     		lsls	r3, r3, #1
 479:Core/Src/main.c ****             update_buffer_with_int(depth_dma_buff, probe_config.adc_samples);
 2263              		.loc 1 479 66 view .LVU556
 2264 02fa C018     		adds	r0, r0, r3
 479:Core/Src/main.c ****             update_buffer_with_int(depth_dma_buff, probe_config.adc_samples);
 2265              		.loc 1 479 81 view .LVU557
 2266 02fc FA21     		movs	r1, #250
 2267 02fe 8900     		lsls	r1, r1, #2
 2268 0300 FFF7FEFF 		bl	__aeabi_idivmod
 2269              	.LVL196:
 479:Core/Src/main.c ****             update_buffer_with_int(depth_dma_buff, probe_config.adc_samples);
 2270              		.loc 1 479 38 view .LVU558
 2271 0304 89B2     		uxth	r1, r1
 2272 0306 6981     		strh	r1, [r5, #10]
 480:Core/Src/main.c ****             break;
 2273              		.loc 1 480 13 is_stmt 1 view .LVU559
 2274 0308 2F48     		ldr	r0, .L126+44
 2275 030a FFF7FEFF 		bl	update_buffer_with_int
 2276              	.LVL197:
 481:Core/Src/main.c ****         case DISPLAY_CONFIG_VOLTAGE_SETTLE_TIME:
 2277              		.loc 1 481 13 view .LVU560
 2278 030e 32E1     		b	.L77
 2279              	.LVL198:
 2280              	.L102:
 483:Core/Src/main.c ****             update_buffer_with_int(depth_dma_buff, probe_config.voltage_settle_time);
 2281              		.loc 1 483 13 view .LVU561
 483:Core/Src/main.c ****             update_buffer_with_int(depth_dma_buff, probe_config.voltage_settle_time);
 2282              		.loc 1 483 61 is_stmt 0 view .LVU562
 2283 0310 314D     		ldr	r5, .L126+60
 2284 0312 288A     		ldrh	r0, [r5, #16]
 2285              	.LVL199:
 483:Core/Src/main.c ****             update_buffer_with_int(depth_dma_buff, probe_config.voltage_settle_time);
 2286              		.loc 1 483 91 view .LVU563
 2287 0314 A300     		lsls	r3, r4, #2
 2288 0316 1B19     		adds	r3, r3, r4
 2289 0318 5B00     		lsls	r3, r3, #1
 483:Core/Src/main.c ****             update_buffer_with_int(depth_dma_buff, probe_config.voltage_settle_time);
 2290              		.loc 1 483 82 view .LVU564
 2291 031a C018     		adds	r0, r0, r3
 483:Core/Src/main.c ****             update_buffer_with_int(depth_dma_buff, probe_config.voltage_settle_time);
 2292              		.loc 1 483 97 view .LVU565
 2293 031c FA21     		movs	r1, #250
 2294 031e 8900     		lsls	r1, r1, #2
 2295 0320 FFF7FEFF 		bl	__aeabi_idivmod
 2296              	.LVL200:
 483:Core/Src/main.c ****             update_buffer_with_int(depth_dma_buff, probe_config.voltage_settle_time);
 2297              		.loc 1 483 46 view .LVU566
ARM GAS  /var/folders/rj/9n9dpytj2n74_jwlj_p0xk9m0000gn/T//ccLmj4mt.s 			page 65


 2298 0324 89B2     		uxth	r1, r1
 2299 0326 2982     		strh	r1, [r5, #16]
 484:Core/Src/main.c ****         case DISPLAY_CALIB:
 2300              		.loc 1 484 13 is_stmt 1 view .LVU567
 2301 0328 2748     		ldr	r0, .L126+44
 2302 032a FFF7FEFF 		bl	update_buffer_with_int
 2303              	.LVL201:
 2304              	.L100:
 486:Core/Src/main.c ****             update_buffer_with_salinity(depth_dma_buff, calib_salinity);
 2305              		.loc 1 486 13 view .LVU568
 486:Core/Src/main.c ****             update_buffer_with_salinity(depth_dma_buff, calib_salinity);
 2306              		.loc 1 486 55 is_stmt 0 view .LVU569
 2307 032e A300     		lsls	r3, r4, #2
 2308 0330 1B19     		adds	r3, r3, r4
 2309 0332 5B00     		lsls	r3, r3, #1
 486:Core/Src/main.c ****             update_buffer_with_salinity(depth_dma_buff, calib_salinity);
 2310              		.loc 1 486 46 view .LVU570
 2311 0334 2E4C     		ldr	r4, .L126+84
 2312 0336 2088     		ldrh	r0, [r4]
 2313 0338 C018     		adds	r0, r0, r3
 486:Core/Src/main.c ****             update_buffer_with_salinity(depth_dma_buff, calib_salinity);
 2314              		.loc 1 486 61 view .LVU571
 2315 033a FA21     		movs	r1, #250
 2316 033c 8900     		lsls	r1, r1, #2
 2317 033e FFF7FEFF 		bl	__aeabi_idivmod
 2318              	.LVL202:
 486:Core/Src/main.c ****             update_buffer_with_salinity(depth_dma_buff, calib_salinity);
 2319              		.loc 1 486 28 view .LVU572
 2320 0342 89B2     		uxth	r1, r1
 2321 0344 2180     		strh	r1, [r4]
 487:Core/Src/main.c ****         default:
 2322              		.loc 1 487 13 is_stmt 1 view .LVU573
 2323 0346 2048     		ldr	r0, .L126+44
 2324 0348 FFF7FEFF 		bl	update_buffer_with_salinity
 2325              	.LVL203:
 2326 034c 13E1     		b	.L77
 2327              	.LVL204:
 2328              	.L83:
 493:Core/Src/main.c ****         switch (display_mode)
 2329              		.loc 1 493 9 view .LVU574
 493:Core/Src/main.c ****         switch (display_mode)
 2330              		.loc 1 493 18 is_stmt 0 view .LVU575
 2331 034e 0320     		movs	r0, #3
 2332 0350 FFF7FEFF 		bl	get_digit
 2333              	.LVL205:
 493:Core/Src/main.c ****         switch (display_mode)
 2334              		.loc 1 493 18 discriminator 1 view .LVU576
 2335 0354 2A49     		ldr	r1, .L126+100
 2336 0356 FFF7FEFF 		bl	get_change
 2337              	.LVL206:
 2338 035a 0400     		movs	r4, r0
 2339              	.LVL207:
 494:Core/Src/main.c ****         {
 2340              		.loc 1 494 9 is_stmt 1 view .LVU577
 2341 035c 114B     		ldr	r3, .L126+8
 2342 035e 1B78     		ldrb	r3, [r3]
 2343 0360 083B     		subs	r3, r3, #8
ARM GAS  /var/folders/rj/9n9dpytj2n74_jwlj_p0xk9m0000gn/T//ccLmj4mt.s 			page 66


 2344 0362 DAB2     		uxtb	r2, r3
 2345 0364 062A     		cmp	r2, #6
 2346 0366 00D9     		bls	.LCB1897
 2347 0368 05E1     		b	.L77	@long jump
 2348              	.LCB1897:
 2349 036a 9300     		lsls	r3, r2, #2
 2350 036c 254A     		ldr	r2, .L126+104
 2351 036e D358     		ldr	r3, [r2, r3]
 2352 0370 9F46     		mov	pc, r3
 2353              		.section	.rodata.HAL_GPIO_EXTI_Callback
 2354              		.align	2
 2355              	.L110:
 2356 009c 72030000 		.word	.L115
 2357 00a0 08040000 		.word	.L114
 2358 00a4 30040000 		.word	.L113
 2359 00a8 4A040000 		.word	.L112
 2360 00ac 64040000 		.word	.L111
 2361 00b0 76050000 		.word	.L77
 2362 00b4 7C040000 		.word	.L109
 2363              		.section	.text.HAL_GPIO_EXTI_Callback
 2364              	.L115:
 497:Core/Src/main.c ****             probe_config.voltage_start = voltage_map[v_start];
 2365              		.loc 1 497 13 view .LVU578
 497:Core/Src/main.c ****             probe_config.voltage_start = voltage_map[v_start];
 2366              		.loc 1 497 32 is_stmt 0 view .LVU579
 2367 0372 204D     		ldr	r5, .L126+88
 2368 0374 2888     		ldrh	r0, [r5]
 2369 0376 0019     		adds	r0, r0, r4
 497:Core/Src/main.c ****             probe_config.voltage_start = voltage_map[v_start];
 2370              		.loc 1 497 41 view .LVU580
 2371 0378 4B30     		adds	r0, r0, #75
 2372 037a FF30     		adds	r0, r0, #255
 497:Core/Src/main.c ****             probe_config.voltage_start = voltage_map[v_start];
 2373              		.loc 1 497 48 view .LVU581
 2374 037c A521     		movs	r1, #165
 2375 037e 4900     		lsls	r1, r1, #1
 2376 0380 FFF7FEFF 		bl	__aeabi_idivmod
 2377              	.LVL208:
 497:Core/Src/main.c ****             probe_config.voltage_start = voltage_map[v_start];
 2378              		.loc 1 497 21 view .LVU582
 2379 0384 2980     		strh	r1, [r5]
 498:Core/Src/main.c ****             update_buffer_with_voltage(depth_dma_buff, probe_config.voltage_start);
 2380              		.loc 1 498 13 is_stmt 1 view .LVU583
 498:Core/Src/main.c ****             update_buffer_with_voltage(depth_dma_buff, probe_config.voltage_start);
 2381              		.loc 1 498 53 is_stmt 0 view .LVU584
 2382 0386 1C4B     		ldr	r3, .L126+92
 2383 0388 0904     		lsls	r1, r1, #16
 2384 038a C90B     		lsrs	r1, r1, #15
 2385 038c C95A     		ldrh	r1, [r1, r3]
 498:Core/Src/main.c ****             update_buffer_with_voltage(depth_dma_buff, probe_config.voltage_start);
 2386              		.loc 1 498 40 view .LVU585
 2387 038e 124B     		ldr	r3, .L126+60
 2388 0390 9980     		strh	r1, [r3, #4]
 499:Core/Src/main.c ****             break;
 2389              		.loc 1 499 13 is_stmt 1 view .LVU586
 2390 0392 0D48     		ldr	r0, .L126+44
 2391 0394 FFF7FEFF 		bl	update_buffer_with_voltage
ARM GAS  /var/folders/rj/9n9dpytj2n74_jwlj_p0xk9m0000gn/T//ccLmj4mt.s 			page 67


 2392              	.LVL209:
 500:Core/Src/main.c ****         case DISPLAY_CONFIG_VOLTAGE_END:
 2393              		.loc 1 500 13 view .LVU587
 2394 0398 EDE0     		b	.L77
 2395              	.L127:
 2396 039a C046     		.align	2
 2397              	.L126:
 2398 039c 00000000 		.word	.LC36
 2399 03a0 00000000 		.word	dig2
 2400 03a4 00000000 		.word	display_mode
 2401 03a8 00000000 		.word	.L101
 2402 03ac 24000000 		.word	.L117
 2403 03b0 00000000 		.word	dig1
 2404 03b4 00000000 		.word	display_values
 2405 03b8 00000000 		.word	salinity_dma_buff
 2406 03bc 60000000 		.word	.L86
 2407 03c0 00000000 		.word	salinity
 2408 03c4 00000000 		.word	depth
 2409 03c8 00000000 		.word	depth_dma_buff
 2410 03cc 00000000 		.word	temperature
 2411 03d0 00000000 		.word	conductivity
 2412 03d4 00000000 		.word	resistance
 2413 03d8 00000000 		.word	probe_config
 2414 03dc 00000000 		.word	display_electrode_type
 2415 03e0 00000000 		.word	display_r1_type
 2416 03e4 4006FFFF 		.word	-63936
 2417 03e8 4005FFFF 		.word	-64192
 2418 03ec 4003FFFF 		.word	-64704
 2419 03f0 00000000 		.word	calib_salinity
 2420 03f4 00000000 		.word	v_start
 2421 03f8 00000000 		.word	voltage_map
 2422 03fc 00000000 		.word	v_end
 2423 0400 00000000 		.word	dig3
 2424 0404 9C000000 		.word	.L110
 2425              	.L114:
 502:Core/Src/main.c ****             probe_config.voltage_end = voltage_map[v_end];
 2426              		.loc 1 502 13 view .LVU588
 502:Core/Src/main.c ****             probe_config.voltage_end = voltage_map[v_end];
 2427              		.loc 1 502 28 is_stmt 0 view .LVU589
 2428 0408 5C4D     		ldr	r5, .L128
 2429 040a 2888     		ldrh	r0, [r5]
 2430 040c 0019     		adds	r0, r0, r4
 502:Core/Src/main.c ****             probe_config.voltage_end = voltage_map[v_end];
 2431              		.loc 1 502 37 view .LVU590
 2432 040e 4B30     		adds	r0, r0, #75
 2433 0410 FF30     		adds	r0, r0, #255
 502:Core/Src/main.c ****             probe_config.voltage_end = voltage_map[v_end];
 2434              		.loc 1 502 44 view .LVU591
 2435 0412 A521     		movs	r1, #165
 2436 0414 4900     		lsls	r1, r1, #1
 2437 0416 FFF7FEFF 		bl	__aeabi_idivmod
 2438              	.LVL210:
 502:Core/Src/main.c ****             probe_config.voltage_end = voltage_map[v_end];
 2439              		.loc 1 502 19 view .LVU592
 2440 041a 2980     		strh	r1, [r5]
 503:Core/Src/main.c ****             update_buffer_with_voltage(depth_dma_buff, probe_config.voltage_end);
 2441              		.loc 1 503 13 is_stmt 1 view .LVU593
ARM GAS  /var/folders/rj/9n9dpytj2n74_jwlj_p0xk9m0000gn/T//ccLmj4mt.s 			page 68


 503:Core/Src/main.c ****             update_buffer_with_voltage(depth_dma_buff, probe_config.voltage_end);
 2442              		.loc 1 503 51 is_stmt 0 view .LVU594
 2443 041c 584B     		ldr	r3, .L128+4
 2444 041e 0904     		lsls	r1, r1, #16
 2445 0420 C90B     		lsrs	r1, r1, #15
 2446 0422 C95A     		ldrh	r1, [r1, r3]
 503:Core/Src/main.c ****             update_buffer_with_voltage(depth_dma_buff, probe_config.voltage_end);
 2447              		.loc 1 503 38 view .LVU595
 2448 0424 574B     		ldr	r3, .L128+8
 2449 0426 D980     		strh	r1, [r3, #6]
 504:Core/Src/main.c ****             break;
 2450              		.loc 1 504 13 is_stmt 1 view .LVU596
 2451 0428 5748     		ldr	r0, .L128+12
 2452 042a FFF7FEFF 		bl	update_buffer_with_voltage
 2453              	.LVL211:
 505:Core/Src/main.c ****         case DISPLAY_CONFIG_VOLTAGE_SAMPLES:
 2454              		.loc 1 505 13 view .LVU597
 2455 042e A2E0     		b	.L77
 2456              	.L113:
 507:Core/Src/main.c ****             update_buffer_with_int(depth_dma_buff, probe_config.num_samples);
 2457              		.loc 1 507 13 view .LVU598
 507:Core/Src/main.c ****             update_buffer_with_int(depth_dma_buff, probe_config.num_samples);
 2458              		.loc 1 507 53 is_stmt 0 view .LVU599
 2459 0430 544D     		ldr	r5, .L128+8
 2460 0432 2889     		ldrh	r0, [r5, #8]
 507:Core/Src/main.c ****             update_buffer_with_int(depth_dma_buff, probe_config.num_samples);
 2461              		.loc 1 507 66 view .LVU600
 2462 0434 2018     		adds	r0, r4, r0
 507:Core/Src/main.c ****             update_buffer_with_int(depth_dma_buff, probe_config.num_samples);
 2463              		.loc 1 507 76 view .LVU601
 2464 0436 FA21     		movs	r1, #250
 2465 0438 8900     		lsls	r1, r1, #2
 2466 043a FFF7FEFF 		bl	__aeabi_idivmod
 2467              	.LVL212:
 507:Core/Src/main.c ****             update_buffer_with_int(depth_dma_buff, probe_config.num_samples);
 2468              		.loc 1 507 38 view .LVU602
 2469 043e 89B2     		uxth	r1, r1
 2470 0440 2981     		strh	r1, [r5, #8]
 508:Core/Src/main.c ****             break;
 2471              		.loc 1 508 13 is_stmt 1 view .LVU603
 2472 0442 5148     		ldr	r0, .L128+12
 2473 0444 FFF7FEFF 		bl	update_buffer_with_int
 2474              	.LVL213:
 509:Core/Src/main.c ****         case DISPLAY_CONFIG_ADC_SAMPLES:
 2475              		.loc 1 509 13 view .LVU604
 2476 0448 95E0     		b	.L77
 2477              	.L112:
 511:Core/Src/main.c ****             update_buffer_with_int(depth_dma_buff, probe_config.adc_samples);
 2478              		.loc 1 511 13 view .LVU605
 511:Core/Src/main.c ****             update_buffer_with_int(depth_dma_buff, probe_config.adc_samples);
 2479              		.loc 1 511 53 is_stmt 0 view .LVU606
 2480 044a 4E4D     		ldr	r5, .L128+8
 2481 044c 6889     		ldrh	r0, [r5, #10]
 511:Core/Src/main.c ****             update_buffer_with_int(depth_dma_buff, probe_config.adc_samples);
 2482              		.loc 1 511 66 view .LVU607
 2483 044e 2018     		adds	r0, r4, r0
 511:Core/Src/main.c ****             update_buffer_with_int(depth_dma_buff, probe_config.adc_samples);
ARM GAS  /var/folders/rj/9n9dpytj2n74_jwlj_p0xk9m0000gn/T//ccLmj4mt.s 			page 69


 2484              		.loc 1 511 76 view .LVU608
 2485 0450 FA21     		movs	r1, #250
 2486 0452 8900     		lsls	r1, r1, #2
 2487 0454 FFF7FEFF 		bl	__aeabi_idivmod
 2488              	.LVL214:
 511:Core/Src/main.c ****             update_buffer_with_int(depth_dma_buff, probe_config.adc_samples);
 2489              		.loc 1 511 38 view .LVU609
 2490 0458 89B2     		uxth	r1, r1
 2491 045a 6981     		strh	r1, [r5, #10]
 512:Core/Src/main.c ****             break;
 2492              		.loc 1 512 13 is_stmt 1 view .LVU610
 2493 045c 4A48     		ldr	r0, .L128+12
 2494 045e FFF7FEFF 		bl	update_buffer_with_int
 2495              	.LVL215:
 513:Core/Src/main.c ****         case DISPLAY_CONFIG_VOLTAGE_SETTLE_TIME:
 2496              		.loc 1 513 13 view .LVU611
 2497 0462 88E0     		b	.L77
 2498              	.L111:
 515:Core/Src/main.c ****             update_buffer_with_int(depth_dma_buff, probe_config.voltage_settle_time);
 2499              		.loc 1 515 13 view .LVU612
 515:Core/Src/main.c ****             update_buffer_with_int(depth_dma_buff, probe_config.voltage_settle_time);
 2500              		.loc 1 515 61 is_stmt 0 view .LVU613
 2501 0464 474D     		ldr	r5, .L128+8
 2502 0466 288A     		ldrh	r0, [r5, #16]
 515:Core/Src/main.c ****             update_buffer_with_int(depth_dma_buff, probe_config.voltage_settle_time);
 2503              		.loc 1 515 82 view .LVU614
 2504 0468 2018     		adds	r0, r4, r0
 515:Core/Src/main.c ****             update_buffer_with_int(depth_dma_buff, probe_config.voltage_settle_time);
 2505              		.loc 1 515 92 view .LVU615
 2506 046a FA21     		movs	r1, #250
 2507 046c 8900     		lsls	r1, r1, #2
 2508 046e FFF7FEFF 		bl	__aeabi_idivmod
 2509              	.LVL216:
 515:Core/Src/main.c ****             update_buffer_with_int(depth_dma_buff, probe_config.voltage_settle_time);
 2510              		.loc 1 515 46 view .LVU616
 2511 0472 89B2     		uxth	r1, r1
 2512 0474 2982     		strh	r1, [r5, #16]
 516:Core/Src/main.c ****         case DISPLAY_CALIB:
 2513              		.loc 1 516 13 is_stmt 1 view .LVU617
 2514 0476 4448     		ldr	r0, .L128+12
 2515 0478 FFF7FEFF 		bl	update_buffer_with_int
 2516              	.LVL217:
 2517              	.L109:
 518:Core/Src/main.c ****             update_buffer_with_salinity(depth_dma_buff, calib_salinity);
 2518              		.loc 1 518 13 view .LVU618
 518:Core/Src/main.c ****             update_buffer_with_salinity(depth_dma_buff, calib_salinity);
 2519              		.loc 1 518 46 is_stmt 0 view .LVU619
 2520 047c 434D     		ldr	r5, .L128+16
 2521 047e 2888     		ldrh	r0, [r5]
 2522 0480 0019     		adds	r0, r0, r4
 518:Core/Src/main.c ****             update_buffer_with_salinity(depth_dma_buff, calib_salinity);
 2523              		.loc 1 518 56 view .LVU620
 2524 0482 FA21     		movs	r1, #250
 2525 0484 8900     		lsls	r1, r1, #2
 2526 0486 FFF7FEFF 		bl	__aeabi_idivmod
 2527              	.LVL218:
 518:Core/Src/main.c ****             update_buffer_with_salinity(depth_dma_buff, calib_salinity);
ARM GAS  /var/folders/rj/9n9dpytj2n74_jwlj_p0xk9m0000gn/T//ccLmj4mt.s 			page 70


 2528              		.loc 1 518 28 view .LVU621
 2529 048a 89B2     		uxth	r1, r1
 2530 048c 2980     		strh	r1, [r5]
 519:Core/Src/main.c ****         default:
 2531              		.loc 1 519 13 is_stmt 1 view .LVU622
 2532 048e 3E48     		ldr	r0, .L128+12
 2533 0490 FFF7FEFF 		bl	update_buffer_with_salinity
 2534              	.LVL219:
 2535 0494 6FE0     		b	.L77
 2536              	.LVL220:
 2537              	.L124:
 532:Core/Src/main.c ****             command[0] = COMMAND_GET_SALINITY;
 2538              		.loc 1 532 13 view .LVU623
 532:Core/Src/main.c ****             command[0] = COMMAND_GET_SALINITY;
 2539              		.loc 1 532 32 is_stmt 0 view .LVU624
 2540 0496 3E4B     		ldr	r3, .L128+20
 2541 0498 0822     		movs	r2, #8
 2542 049a 1A70     		strb	r2, [r3]
 533:Core/Src/main.c ****             rs485_transmit(command, 1);
 2543              		.loc 1 533 13 is_stmt 1 view .LVU625
 533:Core/Src/main.c ****             rs485_transmit(command, 1);
 2544              		.loc 1 533 24 is_stmt 0 view .LVU626
 2545 049c 01A8     		add	r0, sp, #4
 2546 049e 0523     		movs	r3, #5
 2547 04a0 0370     		strb	r3, [r0]
 534:Core/Src/main.c ****             rs485_receive_IT(DATA_PACKET_SIZE);
 2548              		.loc 1 534 13 is_stmt 1 view .LVU627
 2549 04a2 0121     		movs	r1, #1
 2550 04a4 FFF7FEFF 		bl	rs485_transmit
 2551              	.LVL221:
 535:Core/Src/main.c ****             break;
 2552              		.loc 1 535 13 view .LVU628
 2553 04a8 0320     		movs	r0, #3
 2554 04aa FFF7FEFF 		bl	rs485_receive_IT
 2555              	.LVL222:
 536:Core/Src/main.c ****         case DISPLAY_TEMPERATURE:
 2556              		.loc 1 536 13 view .LVU629
 2557 04ae 62E0     		b	.L77
 2558              	.L123:
 538:Core/Src/main.c ****             command[0] = COMMAND_GET_TEMPERATURE;
 2559              		.loc 1 538 13 view .LVU630
 538:Core/Src/main.c ****             command[0] = COMMAND_GET_TEMPERATURE;
 2560              		.loc 1 538 32 is_stmt 0 view .LVU631
 2561 04b0 374B     		ldr	r3, .L128+20
 2562 04b2 0322     		movs	r2, #3
 2563 04b4 1A70     		strb	r2, [r3]
 539:Core/Src/main.c ****             rs485_transmit(command, 1);
 2564              		.loc 1 539 13 is_stmt 1 view .LVU632
 539:Core/Src/main.c ****             rs485_transmit(command, 1);
 2565              		.loc 1 539 24 is_stmt 0 view .LVU633
 2566 04b6 01A8     		add	r0, sp, #4
 2567 04b8 0123     		movs	r3, #1
 2568 04ba 0370     		strb	r3, [r0]
 540:Core/Src/main.c ****             rs485_receive_IT(DATA_PACKET_SIZE);
 2569              		.loc 1 540 13 is_stmt 1 view .LVU634
 2570 04bc 0121     		movs	r1, #1
 2571 04be FFF7FEFF 		bl	rs485_transmit
ARM GAS  /var/folders/rj/9n9dpytj2n74_jwlj_p0xk9m0000gn/T//ccLmj4mt.s 			page 71


 2572              	.LVL223:
 541:Core/Src/main.c ****             break;
 2573              		.loc 1 541 13 view .LVU635
 2574 04c2 0320     		movs	r0, #3
 2575 04c4 FFF7FEFF 		bl	rs485_receive_IT
 2576              	.LVL224:
 542:Core/Src/main.c ****         case DISPLAY_DEPTH:
 2577              		.loc 1 542 13 view .LVU636
 2578 04c8 55E0     		b	.L77
 2579              	.L122:
 544:Core/Src/main.c ****             command[0] = COMMAND_GET_DEPTH;
 2580              		.loc 1 544 13 view .LVU637
 544:Core/Src/main.c ****             command[0] = COMMAND_GET_DEPTH;
 2581              		.loc 1 544 32 is_stmt 0 view .LVU638
 2582 04ca 314B     		ldr	r3, .L128+20
 2583 04cc 0422     		movs	r2, #4
 2584 04ce 1A70     		strb	r2, [r3]
 545:Core/Src/main.c ****             rs485_transmit(command, 1);
 2585              		.loc 1 545 13 is_stmt 1 view .LVU639
 545:Core/Src/main.c ****             rs485_transmit(command, 1);
 2586              		.loc 1 545 24 is_stmt 0 view .LVU640
 2587 04d0 01A8     		add	r0, sp, #4
 2588 04d2 0223     		movs	r3, #2
 2589 04d4 0370     		strb	r3, [r0]
 546:Core/Src/main.c ****             rs485_receive_IT(DATA_PACKET_SIZE);
 2590              		.loc 1 546 13 is_stmt 1 view .LVU641
 2591 04d6 0121     		movs	r1, #1
 2592 04d8 FFF7FEFF 		bl	rs485_transmit
 2593              	.LVL225:
 547:Core/Src/main.c ****             break;
 2594              		.loc 1 547 13 view .LVU642
 2595 04dc 0320     		movs	r0, #3
 2596 04de FFF7FEFF 		bl	rs485_receive_IT
 2597              	.LVL226:
 548:Core/Src/main.c ****         case DISPLAY_SALINITY:
 2598              		.loc 1 548 13 view .LVU643
 2599 04e2 48E0     		b	.L77
 2600              	.L119:
 550:Core/Src/main.c ****             command[0] = COMMAND_GET_SALINITY;
 2601              		.loc 1 550 13 view .LVU644
 550:Core/Src/main.c ****             command[0] = COMMAND_GET_SALINITY;
 2602              		.loc 1 550 32 is_stmt 0 view .LVU645
 2603 04e4 2A4B     		ldr	r3, .L128+20
 2604 04e6 0722     		movs	r2, #7
 2605 04e8 1A70     		strb	r2, [r3]
 551:Core/Src/main.c ****             rs485_transmit(command, 1);
 2606              		.loc 1 551 13 is_stmt 1 view .LVU646
 551:Core/Src/main.c ****             rs485_transmit(command, 1);
 2607              		.loc 1 551 24 is_stmt 0 view .LVU647
 2608 04ea 01A8     		add	r0, sp, #4
 2609 04ec 0523     		movs	r3, #5
 2610 04ee 0370     		strb	r3, [r0]
 552:Core/Src/main.c ****             rs485_receive_IT(DATA_PACKET_SIZE);
 2611              		.loc 1 552 13 is_stmt 1 view .LVU648
 2612 04f0 0121     		movs	r1, #1
 2613 04f2 FFF7FEFF 		bl	rs485_transmit
 2614              	.LVL227:
ARM GAS  /var/folders/rj/9n9dpytj2n74_jwlj_p0xk9m0000gn/T//ccLmj4mt.s 			page 72


 553:Core/Src/main.c ****             break;
 2615              		.loc 1 553 13 view .LVU649
 2616 04f6 0320     		movs	r0, #3
 2617 04f8 FFF7FEFF 		bl	rs485_receive_IT
 2618              	.LVL228:
 554:Core/Src/main.c ****         case DISPLAY_CONDUCTIVITY:
 2619              		.loc 1 554 13 view .LVU650
 2620 04fc 3BE0     		b	.L77
 2621              	.L120:
 556:Core/Src/main.c ****             command[0] = COMMAND_GET_CONDUCTIVITY;
 2622              		.loc 1 556 13 view .LVU651
 556:Core/Src/main.c ****             command[0] = COMMAND_GET_CONDUCTIVITY;
 2623              		.loc 1 556 32 is_stmt 0 view .LVU652
 2624 04fe 244B     		ldr	r3, .L128+20
 2625 0500 0622     		movs	r2, #6
 2626 0502 1A70     		strb	r2, [r3]
 557:Core/Src/main.c ****             rs485_transmit(command, 1);
 2627              		.loc 1 557 13 is_stmt 1 view .LVU653
 557:Core/Src/main.c ****             rs485_transmit(command, 1);
 2628              		.loc 1 557 24 is_stmt 0 view .LVU654
 2629 0504 01A8     		add	r0, sp, #4
 2630 0506 0423     		movs	r3, #4
 2631 0508 0370     		strb	r3, [r0]
 558:Core/Src/main.c ****             rs485_receive_IT(DATA_PACKET_SIZE);
 2632              		.loc 1 558 13 is_stmt 1 view .LVU655
 2633 050a 0121     		movs	r1, #1
 2634 050c FFF7FEFF 		bl	rs485_transmit
 2635              	.LVL229:
 559:Core/Src/main.c ****             break;
 2636              		.loc 1 559 13 view .LVU656
 2637 0510 0320     		movs	r0, #3
 2638 0512 FFF7FEFF 		bl	rs485_receive_IT
 2639              	.LVL230:
 560:Core/Src/main.c ****         case DISPLAY_RESISTANCE:
 2640              		.loc 1 560 13 view .LVU657
 2641 0516 2EE0     		b	.L77
 2642              	.L121:
 562:Core/Src/main.c ****             command[0] = COMMAND_GET_RESISTANCE;
 2643              		.loc 1 562 13 view .LVU658
 562:Core/Src/main.c ****             command[0] = COMMAND_GET_RESISTANCE;
 2644              		.loc 1 562 32 is_stmt 0 view .LVU659
 2645 0518 1D4B     		ldr	r3, .L128+20
 2646 051a 0522     		movs	r2, #5
 2647 051c 1A70     		strb	r2, [r3]
 563:Core/Src/main.c ****             rs485_transmit(command, 1);
 2648              		.loc 1 563 13 is_stmt 1 view .LVU660
 563:Core/Src/main.c ****             rs485_transmit(command, 1);
 2649              		.loc 1 563 24 is_stmt 0 view .LVU661
 2650 051e 01A8     		add	r0, sp, #4
 2651 0520 0323     		movs	r3, #3
 2652 0522 0370     		strb	r3, [r0]
 564:Core/Src/main.c ****             rs485_receive_IT(DATA_PACKET_SIZE);
 2653              		.loc 1 564 13 is_stmt 1 view .LVU662
 2654 0524 0121     		movs	r1, #1
 2655 0526 FFF7FEFF 		bl	rs485_transmit
 2656              	.LVL231:
 565:Core/Src/main.c ****             break;
ARM GAS  /var/folders/rj/9n9dpytj2n74_jwlj_p0xk9m0000gn/T//ccLmj4mt.s 			page 73


 2657              		.loc 1 565 13 view .LVU663
 2658 052a 0320     		movs	r0, #3
 2659 052c FFF7FEFF 		bl	rs485_receive_IT
 2660              	.LVL232:
 566:Core/Src/main.c **** 
 2661              		.loc 1 566 13 view .LVU664
 2662 0530 21E0     		b	.L77
 2663              	.L118:
 575:Core/Src/main.c ****             command[0] = COMMAND_SET_CONFIG;
 2664              		.loc 1 575 13 view .LVU665
 575:Core/Src/main.c ****             command[0] = COMMAND_SET_CONFIG;
 2665              		.loc 1 575 32 is_stmt 0 view .LVU666
 2666 0532 174B     		ldr	r3, .L128+20
 2667 0534 0A22     		movs	r2, #10
 2668 0536 1A70     		strb	r2, [r3]
 576:Core/Src/main.c ****             rs485_transmit(command, 1);
 2669              		.loc 1 576 13 is_stmt 1 view .LVU667
 576:Core/Src/main.c ****             rs485_transmit(command, 1);
 2670              		.loc 1 576 24 is_stmt 0 view .LVU668
 2671 0538 01A8     		add	r0, sp, #4
 2672 053a 0723     		movs	r3, #7
 2673 053c 0370     		strb	r3, [r0]
 577:Core/Src/main.c ****             rs485_receive_IT(1);
 2674              		.loc 1 577 13 is_stmt 1 view .LVU669
 2675 053e 0121     		movs	r1, #1
 2676 0540 FFF7FEFF 		bl	rs485_transmit
 2677              	.LVL233:
 578:Core/Src/main.c ****             break;
 2678              		.loc 1 578 13 view .LVU670
 2679 0544 0120     		movs	r0, #1
 2680 0546 FFF7FEFF 		bl	rs485_receive_IT
 2681              	.LVL234:
 579:Core/Src/main.c ****         case DISPLAY_CALIB:
 2682              		.loc 1 579 13 view .LVU671
 2683 054a 14E0     		b	.L77
 2684              	.L116:
 581:Core/Src/main.c ****             command[0] = COMMAND_CALIBRATE;
 2685              		.loc 1 581 13 view .LVU672
 581:Core/Src/main.c ****             command[0] = COMMAND_CALIBRATE;
 2686              		.loc 1 581 32 is_stmt 0 view .LVU673
 2687 054c 104B     		ldr	r3, .L128+20
 2688 054e 0B22     		movs	r2, #11
 2689 0550 1A70     		strb	r2, [r3]
 582:Core/Src/main.c ****             rs485_transmit(command, 1);
 2690              		.loc 1 582 13 is_stmt 1 view .LVU674
 582:Core/Src/main.c ****             rs485_transmit(command, 1);
 2691              		.loc 1 582 24 is_stmt 0 view .LVU675
 2692 0552 01A8     		add	r0, sp, #4
 2693 0554 0823     		movs	r3, #8
 2694 0556 0370     		strb	r3, [r0]
 583:Core/Src/main.c ****             rs485_receive_IT(1);
 2695              		.loc 1 583 13 is_stmt 1 view .LVU676
 2696 0558 0121     		movs	r1, #1
 2697 055a FFF7FEFF 		bl	rs485_transmit
 2698              	.LVL235:
 584:Core/Src/main.c ****             break;
 2699              		.loc 1 584 13 view .LVU677
ARM GAS  /var/folders/rj/9n9dpytj2n74_jwlj_p0xk9m0000gn/T//ccLmj4mt.s 			page 74


 2700 055e 0120     		movs	r0, #1
 2701 0560 FFF7FEFF 		bl	rs485_receive_IT
 2702              	.LVL236:
 585:Core/Src/main.c ****         default:
 2703              		.loc 1 585 13 view .LVU678
 2704 0564 07E0     		b	.L77
 2705              	.L78:
 591:Core/Src/main.c ****         rs485_transmit(command, 1);
 2706              		.loc 1 591 9 view .LVU679
 591:Core/Src/main.c ****         rs485_transmit(command, 1);
 2707              		.loc 1 591 20 is_stmt 0 view .LVU680
 2708 0566 01A8     		add	r0, sp, #4
 2709 0568 FF23     		movs	r3, #255
 2710 056a 0370     		strb	r3, [r0]
 592:Core/Src/main.c ****         HAL_NVIC_SystemReset();
 2711              		.loc 1 592 9 is_stmt 1 view .LVU681
 2712 056c 0121     		movs	r1, #1
 2713 056e FFF7FEFF 		bl	rs485_transmit
 2714              	.LVL237:
 593:Core/Src/main.c ****         break;
 2715              		.loc 1 593 9 view .LVU682
 2716 0572 FFF7FEFF 		bl	HAL_NVIC_SystemReset
 2717              	.LVL238:
 594:Core/Src/main.c ****     default:
 2718              		.loc 1 594 9 view .LVU683
 2719              	.L77:
 2720              	.LBE10:
 598:Core/Src/main.c **** 
 2721              		.loc 1 598 1 is_stmt 0 view .LVU684
 2722 0576 03B0     		add	sp, sp, #12
 2723              		@ sp needed
 2724 0578 30BD     		pop	{r4, r5, pc}
 2725              	.L129:
 2726 057a C046     		.align	2
 2727              	.L128:
 2728 057c 00000000 		.word	v_end
 2729 0580 00000000 		.word	voltage_map
 2730 0584 00000000 		.word	probe_config
 2731 0588 00000000 		.word	depth_dma_buff
 2732 058c 00000000 		.word	calib_salinity
 2733 0590 00000000 		.word	expecting_response
 2734              		.cfi_endproc
 2735              	.LFE47:
 2737              		.global	probe_config
 2738              		.section	.data.probe_config,"aw"
 2739              		.align	2
 2742              	probe_config:
 2743 0000 02       		.byte	2
 2744 0001 00       		.byte	0
 2745 0002 01       		.byte	1
 2746 0003 00       		.space	1
 2747 0004 0002     		.short	512
 2748 0006 0002     		.short	512
 2749 0008 0100     		.short	1
 2750 000a 0200     		.short	2
 2751 000c 404B4C00 		.word	5000000
 2752 0010 3200     		.short	50
ARM GAS  /var/folders/rj/9n9dpytj2n74_jwlj_p0xk9m0000gn/T//ccLmj4mt.s 			page 75


 2753 0012 0000     		.space	2
 2754              		.global	v_end
 2755              		.section	.data.v_end,"aw"
 2756              		.align	1
 2759              	v_end:
 2760 0000 A500     		.short	165
 2761              		.global	v_start
 2762              		.section	.data.v_start,"aw"
 2763              		.align	1
 2766              	v_start:
 2767 0000 A500     		.short	165
 2768              		.global	calib_salinity
 2769              		.section	.data.calib_salinity,"aw"
 2770              		.align	1
 2773              	calib_salinity:
 2774 0000 5E01     		.short	350
 2775              		.global	conductivity
 2776              		.section	.bss.conductivity,"aw",%nobits
 2777              		.align	2
 2780              	conductivity:
 2781 0000 000000   		.space	3
 2782              		.global	resistance
 2783              		.section	.bss.resistance,"aw",%nobits
 2784              		.align	2
 2787              	resistance:
 2788 0000 000000   		.space	3
 2789              		.global	salinity
 2790              		.section	.bss.salinity,"aw",%nobits
 2791              		.align	2
 2794              	salinity:
 2795 0000 000000   		.space	3
 2796              		.global	depth
 2797              		.section	.bss.depth,"aw",%nobits
 2798              		.align	2
 2801              	depth:
 2802 0000 000000   		.space	3
 2803              		.global	temperature
 2804              		.section	.bss.temperature,"aw",%nobits
 2805              		.align	2
 2808              	temperature:
 2809 0000 000000   		.space	3
 2810              		.global	rx_buffer_size
 2811              		.section	.bss.rx_buffer_size,"aw",%nobits
 2814              	rx_buffer_size:
 2815 0000 00       		.space	1
 2816              		.global	rx_buffer
 2817              		.section	.bss.rx_buffer,"aw",%nobits
 2818              		.align	2
 2821              	rx_buffer:
 2822 0000 00000000 		.space	256
 2822      00000000 
 2822      00000000 
 2822      00000000 
 2822      00000000 
 2823              		.global	expecting_response
 2824              		.section	.bss.expecting_response,"aw",%nobits
 2827              	expecting_response:
ARM GAS  /var/folders/rj/9n9dpytj2n74_jwlj_p0xk9m0000gn/T//ccLmj4mt.s 			page 76


 2828 0000 00       		.space	1
 2829              		.global	last_tick
 2830              		.section	.bss.last_tick,"aw",%nobits
 2831              		.align	2
 2834              	last_tick:
 2835 0000 00000000 		.space	4
 2836              		.global	dig3
 2837              		.section	.bss.dig3,"aw",%nobits
 2840              	dig3:
 2841 0000 00       		.space	1
 2842              		.global	dig2
 2843              		.section	.bss.dig2,"aw",%nobits
 2846              	dig2:
 2847 0000 00       		.space	1
 2848              		.global	dig1
 2849              		.section	.bss.dig1,"aw",%nobits
 2852              	dig1:
 2853 0000 00       		.space	1
 2854              		.global	display_mode
 2855              		.section	.bss.display_mode,"aw",%nobits
 2858              	display_mode:
 2859 0000 00       		.space	1
 2860              		.global	depth_dma_buff
 2861              		.section	.data.depth_dma_buff,"aw"
 2862              		.align	2
 2865              	depth_dma_buff:
 2866 0000 4006FFFF 		.word	-63936
 2867 0004 4005FFFF 		.word	-64192
 2868 0008 4003FFFF 		.word	-64704
 2869              		.global	salinity_dma_buff
 2870              		.section	.data.salinity_dma_buff,"aw"
 2871              		.align	2
 2874              	salinity_dma_buff:
 2875 0000 4006FFFF 		.word	-63936
 2876 0004 4005FFFF 		.word	-64192
 2877 0008 4003FFFF 		.word	-64704
 2878              		.global	voltage_map
 2879              		.section	.bss.voltage_map,"aw",%nobits
 2880              		.align	2
 2883              	voltage_map:
 2884 0000 00000000 		.space	660
 2884      00000000 
 2884      00000000 
 2884      00000000 
 2884      00000000 
 2885              		.global	display_r1_type
 2886              		.section	.rodata.display_r1_type,"a"
 2887              		.align	2
 2890              	display_r1_type:
 2891 0000 0606FFFF 		.word	-63994
 2892 0004 7905FFFF 		.word	-64135
 2893 0008 5B03FFFF 		.word	-64677
 2894 000c 0606FFFF 		.word	-63994
 2895 0010 7905FFFF 		.word	-64135
 2896 0014 4F03FFFF 		.word	-64689
 2897 0018 0606FFFF 		.word	-63994
 2898 001c 7905FFFF 		.word	-64135
ARM GAS  /var/folders/rj/9n9dpytj2n74_jwlj_p0xk9m0000gn/T//ccLmj4mt.s 			page 77


 2899 0020 6603FFFF 		.word	-64666
 2900              		.global	display_electrode_type
 2901              		.section	.rodata.display_electrode_type,"a"
 2902              		.align	2
 2905              	display_electrode_type:
 2906 0000 7706FFFF 		.word	-63881
 2907 0004 3E05FFFF 		.word	-64194
 2908 0008 00000000 		.word	0
 2909 000c 7806FFFF 		.word	-63880
 2910 0010 0605FFFF 		.word	-64250
 2911 0014 00000000 		.word	0
 2912 0018 7706FFFF 		.word	-63881
 2913 001c 3E05FFFF 		.word	-64194
 2914 0020 6D03FFFF 		.word	-64659
 2915              		.global	display_values
 2916              		.section	.rodata.display_values,"a"
 2917              		.align	2
 2920              	display_values:
 2921 0000 00000000 		.word	0
 2922 0004 00000000 		.word	0
 2923 0008 00000000 		.word	0
 2924 000c 7806FFFF 		.word	-63880
 2925 0010 7905FFFF 		.word	-64135
 2926 0014 7303FFFF 		.word	-64653
 2927 0018 5E06FFFF 		.word	-63906
 2928 001c 7905FFFF 		.word	-64135
 2929 0020 7303FFFF 		.word	-64653
 2930 0024 5006FFFF 		.word	-63920
 2931 0028 7905FFFF 		.word	-64135
 2932 002c 6D03FFFF 		.word	-64659
 2933 0030 3906FFFF 		.word	-63943
 2934 0034 5405FFFF 		.word	-64172
 2935 0038 5E03FFFF 		.word	-64674
 2936 003c 6D06FFFF 		.word	-63891
 2937 0040 7705FFFF 		.word	-64137
 2938 0044 3803FFFF 		.word	-64712
 2939 0048 7906FFFF 		.word	-63879
 2940 004c 3805FFFF 		.word	-64200
 2941 0050 7903FFFF 		.word	-64647
 2942 0054 5006FFFF 		.word	-63920
 2943 0058 0605FFFF 		.word	-64250
 2944 005c 0003FFFF 		.word	-64768
 2945 0060 1C06FFFF 		.word	-63972
 2946 0064 6D05FFFF 		.word	-64147
 2947 0068 7803FFFF 		.word	-64648
 2948 006c 1C06FFFF 		.word	-63972
 2949 0070 7905FFFF 		.word	-64135
 2950 0074 5E03FFFF 		.word	-64674
 2951 0078 1C06FFFF 		.word	-63972
 2952 007c 6D05FFFF 		.word	-64147
 2953 0080 7303FFFF 		.word	-64653
 2954 0084 6D06FFFF 		.word	-63891
 2955 0088 7305FFFF 		.word	-64141
 2956 008c 3803FFFF 		.word	-64712
 2957 0090 6D06FFFF 		.word	-63891
 2958 0094 7805FFFF 		.word	-64136
 2959 0098 3803FFFF 		.word	-64712
ARM GAS  /var/folders/rj/9n9dpytj2n74_jwlj_p0xk9m0000gn/T//ccLmj4mt.s 			page 78


 2960 009c 3906FFFF 		.word	-63943
 2961 00a0 7105FFFF 		.word	-64143
 2962 00a4 3D03FFFF 		.word	-64707
 2963 00a8 3906FFFF 		.word	-63943
 2964 00ac 3805FFFF 		.word	-64200
 2965 00b0 7C03FFFF 		.word	-64644
 2966              		.global	number_masks
 2967              		.section	.rodata.number_masks,"a"
 2968              		.align	2
 2971              	number_masks:
 2972 0000 3F065B4F 		.ascii	"?\006[Ofm}\007\177o"
 2972      666D7D07 
 2972      7F6F
 2973              		.global	digit_masks
 2974              		.section	.rodata.digit_masks,"a"
 2975              		.align	2
 2978              	digit_masks:
 2979 0000 0006     		.short	1536
 2980 0002 0005     		.short	1280
 2981 0004 0003     		.short	768
 2982              		.text
 2983              	.Letext0:
 2984              		.file 3 "Drivers/CMSIS/Device/ST/STM32F0xx/Include/stm32f030x8.h"
 2985              		.file 4 "/opt/local/arm-none-eabi/include/machine/_default_types.h"
 2986              		.file 5 "/opt/local/arm-none-eabi/include/sys/_stdint.h"
 2987              		.file 6 "Drivers/STM32F0xx_HAL_Driver/Inc/stm32f0xx_hal_def.h"
 2988              		.file 7 "Drivers/STM32F0xx_HAL_Driver/Inc/stm32f0xx_hal_rcc.h"
 2989              		.file 8 "Drivers/STM32F0xx_HAL_Driver/Inc/stm32f0xx_hal_rcc_ex.h"
 2990              		.file 9 "Drivers/STM32F0xx_HAL_Driver/Inc/stm32f0xx_hal_gpio.h"
 2991              		.file 10 "Drivers/STM32F0xx_HAL_Driver/Inc/stm32f0xx_hal_dma.h"
 2992              		.file 11 "Drivers/STM32F0xx_HAL_Driver/Inc/stm32f0xx_hal_tim.h"
 2993              		.file 12 "Drivers/STM32F0xx_HAL_Driver/Inc/stm32f0xx_hal_uart.h"
 2994              		.file 13 "Core/Inc/tim.h"
 2995              		.file 14 "Core/Inc/usart.h"
 2996              		.file 15 "../RS485/RS485.h"
 2997              		.file 16 "../RS485/ProbeConfig.h"
 2998              		.file 17 "Drivers/STM32F0xx_HAL_Driver/Inc/stm32f0xx_hal.h"
 2999              		.file 18 "Drivers/STM32F0xx_HAL_Driver/Inc/stm32f0xx_hal_cortex.h"
 3000              		.file 19 "Core/Inc/spi.h"
 3001              		.file 20 "Core/Inc/dma.h"
 3002              		.file 21 "Core/Inc/gpio.h"
 3003              		.file 22 "<built-in>"
ARM GAS  /var/folders/rj/9n9dpytj2n74_jwlj_p0xk9m0000gn/T//ccLmj4mt.s 			page 79


DEFINED SYMBOLS
                            *ABS*:00000000 main.c
/var/folders/rj/9n9dpytj2n74_jwlj_p0xk9m0000gn/T//ccLmj4mt.s:19     .text.MX_NVIC_Init:00000000 $t
/var/folders/rj/9n9dpytj2n74_jwlj_p0xk9m0000gn/T//ccLmj4mt.s:24     .text.MX_NVIC_Init:00000000 MX_NVIC_Init
/var/folders/rj/9n9dpytj2n74_jwlj_p0xk9m0000gn/T//ccLmj4mt.s:71     .text.get_digit:00000000 $t
/var/folders/rj/9n9dpytj2n74_jwlj_p0xk9m0000gn/T//ccLmj4mt.s:77     .text.get_digit:00000000 get_digit
/var/folders/rj/9n9dpytj2n74_jwlj_p0xk9m0000gn/T//ccLmj4mt.s:233    .text.get_digit:000000cc $d
/var/folders/rj/9n9dpytj2n74_jwlj_p0xk9m0000gn/T//ccLmj4mt.s:240    .text.get_change:00000000 $t
/var/folders/rj/9n9dpytj2n74_jwlj_p0xk9m0000gn/T//ccLmj4mt.s:246    .text.get_change:00000000 get_change
/var/folders/rj/9n9dpytj2n74_jwlj_p0xk9m0000gn/T//ccLmj4mt.s:316    .text.update_buffer:00000000 $t
/var/folders/rj/9n9dpytj2n74_jwlj_p0xk9m0000gn/T//ccLmj4mt.s:322    .text.update_buffer:00000000 update_buffer
/var/folders/rj/9n9dpytj2n74_jwlj_p0xk9m0000gn/T//ccLmj4mt.s:418    .text.update_buffer:00000050 $d
/var/folders/rj/9n9dpytj2n74_jwlj_p0xk9m0000gn/T//ccLmj4mt.s:2978   .rodata.digit_masks:00000000 digit_masks
/var/folders/rj/9n9dpytj2n74_jwlj_p0xk9m0000gn/T//ccLmj4mt.s:2971   .rodata.number_masks:00000000 number_masks
/var/folders/rj/9n9dpytj2n74_jwlj_p0xk9m0000gn/T//ccLmj4mt.s:428    .text.update_buffer_with_salinity:00000000 $t
/var/folders/rj/9n9dpytj2n74_jwlj_p0xk9m0000gn/T//ccLmj4mt.s:434    .text.update_buffer_with_salinity:00000000 update_buffer_with_salinity
/var/folders/rj/9n9dpytj2n74_jwlj_p0xk9m0000gn/T//ccLmj4mt.s:507    .text.update_buffer_with_voltage:00000000 $t
/var/folders/rj/9n9dpytj2n74_jwlj_p0xk9m0000gn/T//ccLmj4mt.s:513    .text.update_buffer_with_voltage:00000000 update_buffer_with_voltage
/var/folders/rj/9n9dpytj2n74_jwlj_p0xk9m0000gn/T//ccLmj4mt.s:599    .text.update_buffer_with_int:00000000 $t
/var/folders/rj/9n9dpytj2n74_jwlj_p0xk9m0000gn/T//ccLmj4mt.s:605    .text.update_buffer_with_int:00000000 update_buffer_with_int
/var/folders/rj/9n9dpytj2n74_jwlj_p0xk9m0000gn/T//ccLmj4mt.s:676    .text.Error_Handler:00000000 $t
/var/folders/rj/9n9dpytj2n74_jwlj_p0xk9m0000gn/T//ccLmj4mt.s:682    .text.Error_Handler:00000000 Error_Handler
/var/folders/rj/9n9dpytj2n74_jwlj_p0xk9m0000gn/T//ccLmj4mt.s:732    .text.Error_Handler:00000020 $d
/var/folders/rj/9n9dpytj2n74_jwlj_p0xk9m0000gn/T//ccLmj4mt.s:738    .text.SystemClock_Config:00000000 $t
/var/folders/rj/9n9dpytj2n74_jwlj_p0xk9m0000gn/T//ccLmj4mt.s:744    .text.SystemClock_Config:00000000 SystemClock_Config
/var/folders/rj/9n9dpytj2n74_jwlj_p0xk9m0000gn/T//ccLmj4mt.s:856    .text.rs485_transmit:00000000 $t
/var/folders/rj/9n9dpytj2n74_jwlj_p0xk9m0000gn/T//ccLmj4mt.s:862    .text.rs485_transmit:00000000 rs485_transmit
/var/folders/rj/9n9dpytj2n74_jwlj_p0xk9m0000gn/T//ccLmj4mt.s:932    .text.rs485_transmit:00000040 $d
/var/folders/rj/9n9dpytj2n74_jwlj_p0xk9m0000gn/T//ccLmj4mt.s:939    .text.rs485_receive_IT:00000000 $t
/var/folders/rj/9n9dpytj2n74_jwlj_p0xk9m0000gn/T//ccLmj4mt.s:945    .text.rs485_receive_IT:00000000 rs485_receive_IT
/var/folders/rj/9n9dpytj2n74_jwlj_p0xk9m0000gn/T//ccLmj4mt.s:1000   .text.rs485_receive_IT:00000030 $d
/var/folders/rj/9n9dpytj2n74_jwlj_p0xk9m0000gn/T//ccLmj4mt.s:2821   .bss.rx_buffer:00000000 rx_buffer
/var/folders/rj/9n9dpytj2n74_jwlj_p0xk9m0000gn/T//ccLmj4mt.s:1008   .rodata.main.str1.4:00000000 $d
/var/folders/rj/9n9dpytj2n74_jwlj_p0xk9m0000gn/T//ccLmj4mt.s:1012   .text.main:00000000 $t
/var/folders/rj/9n9dpytj2n74_jwlj_p0xk9m0000gn/T//ccLmj4mt.s:1018   .text.main:00000000 main
/var/folders/rj/9n9dpytj2n74_jwlj_p0xk9m0000gn/T//ccLmj4mt.s:1203   .text.main:000000dc $d
/var/folders/rj/9n9dpytj2n74_jwlj_p0xk9m0000gn/T//ccLmj4mt.s:2883   .bss.voltage_map:00000000 voltage_map
/var/folders/rj/9n9dpytj2n74_jwlj_p0xk9m0000gn/T//ccLmj4mt.s:2766   .data.v_start:00000000 v_start
/var/folders/rj/9n9dpytj2n74_jwlj_p0xk9m0000gn/T//ccLmj4mt.s:2742   .data.probe_config:00000000 probe_config
/var/folders/rj/9n9dpytj2n74_jwlj_p0xk9m0000gn/T//ccLmj4mt.s:2759   .data.v_end:00000000 v_end
/var/folders/rj/9n9dpytj2n74_jwlj_p0xk9m0000gn/T//ccLmj4mt.s:2852   .bss.dig1:00000000 dig1
/var/folders/rj/9n9dpytj2n74_jwlj_p0xk9m0000gn/T//ccLmj4mt.s:2846   .bss.dig2:00000000 dig2
/var/folders/rj/9n9dpytj2n74_jwlj_p0xk9m0000gn/T//ccLmj4mt.s:2840   .bss.dig3:00000000 dig3
/var/folders/rj/9n9dpytj2n74_jwlj_p0xk9m0000gn/T//ccLmj4mt.s:2874   .data.salinity_dma_buff:00000000 salinity_dma_buff
/var/folders/rj/9n9dpytj2n74_jwlj_p0xk9m0000gn/T//ccLmj4mt.s:2865   .data.depth_dma_buff:00000000 depth_dma_buff
/var/folders/rj/9n9dpytj2n74_jwlj_p0xk9m0000gn/T//ccLmj4mt.s:2827   .bss.expecting_response:00000000 expecting_response
/var/folders/rj/9n9dpytj2n74_jwlj_p0xk9m0000gn/T//ccLmj4mt.s:1224   .rodata.HAL_UART_RxCpltCallback.str1.4:00000000 $d
/var/folders/rj/9n9dpytj2n74_jwlj_p0xk9m0000gn/T//ccLmj4mt.s:1228   .text.HAL_UART_RxCpltCallback:00000000 $t
/var/folders/rj/9n9dpytj2n74_jwlj_p0xk9m0000gn/T//ccLmj4mt.s:1234   .text.HAL_UART_RxCpltCallback:00000000 HAL_UART_RxCpltCallback
/var/folders/rj/9n9dpytj2n74_jwlj_p0xk9m0000gn/T//ccLmj4mt.s:1282   .rodata.HAL_UART_RxCpltCallback:00000000 $d
/var/folders/rj/9n9dpytj2n74_jwlj_p0xk9m0000gn/T//ccLmj4mt.s:1575   .text.HAL_UART_RxCpltCallback:00000164 $d
/var/folders/rj/9n9dpytj2n74_jwlj_p0xk9m0000gn/T//ccLmj4mt.s:2794   .bss.salinity:00000000 salinity
/var/folders/rj/9n9dpytj2n74_jwlj_p0xk9m0000gn/T//ccLmj4mt.s:2858   .bss.display_mode:00000000 display_mode
/var/folders/rj/9n9dpytj2n74_jwlj_p0xk9m0000gn/T//ccLmj4mt.s:2808   .bss.temperature:00000000 temperature
/var/folders/rj/9n9dpytj2n74_jwlj_p0xk9m0000gn/T//ccLmj4mt.s:2801   .bss.depth:00000000 depth
/var/folders/rj/9n9dpytj2n74_jwlj_p0xk9m0000gn/T//ccLmj4mt.s:2780   .bss.conductivity:00000000 conductivity
/var/folders/rj/9n9dpytj2n74_jwlj_p0xk9m0000gn/T//ccLmj4mt.s:2787   .bss.resistance:00000000 resistance
ARM GAS  /var/folders/rj/9n9dpytj2n74_jwlj_p0xk9m0000gn/T//ccLmj4mt.s 			page 80


/var/folders/rj/9n9dpytj2n74_jwlj_p0xk9m0000gn/T//ccLmj4mt.s:2773   .data.calib_salinity:00000000 calib_salinity
/var/folders/rj/9n9dpytj2n74_jwlj_p0xk9m0000gn/T//ccLmj4mt.s:1595   .rodata.HAL_GPIO_EXTI_Callback.str1.4:00000000 $d
/var/folders/rj/9n9dpytj2n74_jwlj_p0xk9m0000gn/T//ccLmj4mt.s:1599   .text.HAL_GPIO_EXTI_Callback:00000000 $t
/var/folders/rj/9n9dpytj2n74_jwlj_p0xk9m0000gn/T//ccLmj4mt.s:1605   .text.HAL_GPIO_EXTI_Callback:00000000 HAL_GPIO_EXTI_Callback
/var/folders/rj/9n9dpytj2n74_jwlj_p0xk9m0000gn/T//ccLmj4mt.s:1678   .rodata.HAL_GPIO_EXTI_Callback:00000000 $d
/var/folders/rj/9n9dpytj2n74_jwlj_p0xk9m0000gn/T//ccLmj4mt.s:2398   .text.HAL_GPIO_EXTI_Callback:0000039c $d
/var/folders/rj/9n9dpytj2n74_jwlj_p0xk9m0000gn/T//ccLmj4mt.s:2920   .rodata.display_values:00000000 display_values
/var/folders/rj/9n9dpytj2n74_jwlj_p0xk9m0000gn/T//ccLmj4mt.s:2905   .rodata.display_electrode_type:00000000 display_electrode_type
/var/folders/rj/9n9dpytj2n74_jwlj_p0xk9m0000gn/T//ccLmj4mt.s:2890   .rodata.display_r1_type:00000000 display_r1_type
/var/folders/rj/9n9dpytj2n74_jwlj_p0xk9m0000gn/T//ccLmj4mt.s:2428   .text.HAL_GPIO_EXTI_Callback:00000408 $t
/var/folders/rj/9n9dpytj2n74_jwlj_p0xk9m0000gn/T//ccLmj4mt.s:2728   .text.HAL_GPIO_EXTI_Callback:0000057c $d
/var/folders/rj/9n9dpytj2n74_jwlj_p0xk9m0000gn/T//ccLmj4mt.s:2739   .data.probe_config:00000000 $d
/var/folders/rj/9n9dpytj2n74_jwlj_p0xk9m0000gn/T//ccLmj4mt.s:2756   .data.v_end:00000000 $d
/var/folders/rj/9n9dpytj2n74_jwlj_p0xk9m0000gn/T//ccLmj4mt.s:2763   .data.v_start:00000000 $d
/var/folders/rj/9n9dpytj2n74_jwlj_p0xk9m0000gn/T//ccLmj4mt.s:2770   .data.calib_salinity:00000000 $d
/var/folders/rj/9n9dpytj2n74_jwlj_p0xk9m0000gn/T//ccLmj4mt.s:2777   .bss.conductivity:00000000 $d
/var/folders/rj/9n9dpytj2n74_jwlj_p0xk9m0000gn/T//ccLmj4mt.s:2784   .bss.resistance:00000000 $d
/var/folders/rj/9n9dpytj2n74_jwlj_p0xk9m0000gn/T//ccLmj4mt.s:2791   .bss.salinity:00000000 $d
/var/folders/rj/9n9dpytj2n74_jwlj_p0xk9m0000gn/T//ccLmj4mt.s:2798   .bss.depth:00000000 $d
/var/folders/rj/9n9dpytj2n74_jwlj_p0xk9m0000gn/T//ccLmj4mt.s:2805   .bss.temperature:00000000 $d
/var/folders/rj/9n9dpytj2n74_jwlj_p0xk9m0000gn/T//ccLmj4mt.s:2814   .bss.rx_buffer_size:00000000 rx_buffer_size
/var/folders/rj/9n9dpytj2n74_jwlj_p0xk9m0000gn/T//ccLmj4mt.s:2815   .bss.rx_buffer_size:00000000 $d
/var/folders/rj/9n9dpytj2n74_jwlj_p0xk9m0000gn/T//ccLmj4mt.s:2818   .bss.rx_buffer:00000000 $d
/var/folders/rj/9n9dpytj2n74_jwlj_p0xk9m0000gn/T//ccLmj4mt.s:2828   .bss.expecting_response:00000000 $d
/var/folders/rj/9n9dpytj2n74_jwlj_p0xk9m0000gn/T//ccLmj4mt.s:2834   .bss.last_tick:00000000 last_tick
/var/folders/rj/9n9dpytj2n74_jwlj_p0xk9m0000gn/T//ccLmj4mt.s:2831   .bss.last_tick:00000000 $d
/var/folders/rj/9n9dpytj2n74_jwlj_p0xk9m0000gn/T//ccLmj4mt.s:2841   .bss.dig3:00000000 $d
/var/folders/rj/9n9dpytj2n74_jwlj_p0xk9m0000gn/T//ccLmj4mt.s:2847   .bss.dig2:00000000 $d
/var/folders/rj/9n9dpytj2n74_jwlj_p0xk9m0000gn/T//ccLmj4mt.s:2853   .bss.dig1:00000000 $d
/var/folders/rj/9n9dpytj2n74_jwlj_p0xk9m0000gn/T//ccLmj4mt.s:2859   .bss.display_mode:00000000 $d
/var/folders/rj/9n9dpytj2n74_jwlj_p0xk9m0000gn/T//ccLmj4mt.s:2862   .data.depth_dma_buff:00000000 $d
/var/folders/rj/9n9dpytj2n74_jwlj_p0xk9m0000gn/T//ccLmj4mt.s:2871   .data.salinity_dma_buff:00000000 $d
/var/folders/rj/9n9dpytj2n74_jwlj_p0xk9m0000gn/T//ccLmj4mt.s:2880   .bss.voltage_map:00000000 $d
/var/folders/rj/9n9dpytj2n74_jwlj_p0xk9m0000gn/T//ccLmj4mt.s:2887   .rodata.display_r1_type:00000000 $d
/var/folders/rj/9n9dpytj2n74_jwlj_p0xk9m0000gn/T//ccLmj4mt.s:2902   .rodata.display_electrode_type:00000000 $d
/var/folders/rj/9n9dpytj2n74_jwlj_p0xk9m0000gn/T//ccLmj4mt.s:2917   .rodata.display_values:00000000 $d
/var/folders/rj/9n9dpytj2n74_jwlj_p0xk9m0000gn/T//ccLmj4mt.s:2968   .rodata.number_masks:00000000 $d
/var/folders/rj/9n9dpytj2n74_jwlj_p0xk9m0000gn/T//ccLmj4mt.s:2975   .rodata.digit_masks:00000000 $d

UNDEFINED SYMBOLS
HAL_NVIC_SetPriority
HAL_NVIC_EnableIRQ
HAL_Delay
HAL_GPIO_ReadPin
__aeabi_idivmod
__aeabi_uidiv
__aeabi_uidivmod
memset
HAL_GPIO_WritePin
HAL_NVIC_SystemReset
HAL_RCC_OscConfig
HAL_RCC_ClockConfig
HAL_RCCEx_PeriphCLKConfig
HAL_HalfDuplex_EnableTransmitter
HAL_UART_Transmit
huart1
HAL_HalfDuplex_EnableReceiver
ARM GAS  /var/folders/rj/9n9dpytj2n74_jwlj_p0xk9m0000gn/T//ccLmj4mt.s 			page 81


HAL_UART_Receive_IT
__aeabi_idiv
HAL_Init
MX_GPIO_Init
MX_DMA_Init
MX_SPI2_Init
MX_USART1_UART_Init
MX_TIM6_Init
MX_TIM17_Init
HAL_DMA_Start
HAL_TIM_Base_Start
hdma_tim6_up
htim6
hdma_tim17_ch1_up
htim17
