ARM GAS  /var/folders/rj/9n9dpytj2n74_jwlj_p0xk9m0000gn/T//ccaWyzcK.s 			page 1


   1              		.cpu cortex-m4
   2              		.arch armv7e-m
   3              		.fpu fpv4-sp-d16
   4              		.eabi_attribute 27, 1
   5              		.eabi_attribute 28, 1
   6              		.eabi_attribute 20, 1
   7              		.eabi_attribute 21, 1
   8              		.eabi_attribute 23, 3
   9              		.eabi_attribute 24, 1
  10              		.eabi_attribute 25, 1
  11              		.eabi_attribute 26, 1
  12              		.eabi_attribute 30, 1
  13              		.eabi_attribute 34, 1
  14              		.eabi_attribute 18, 4
  15              		.file	"voltage.c"
  16              		.text
  17              	.Ltext0:
  18              		.cfi_sections	.debug_frame
  19              		.file 1 "Core/Src/voltage.c"
  20              		.section	.text.us_delay,"ax",%progbits
  21              		.align	1
  22              		.global	us_delay
  23              		.syntax unified
  24              		.thumb
  25              		.thumb_func
  27              	us_delay:
  28              	.LVL0:
  29              	.LFB221:
   1:Core/Src/voltage.c **** /* Includes ------------------------------------------------------------------*/
   2:Core/Src/voltage.c **** #include "voltage.h"
   3:Core/Src/voltage.c **** /* Private variables ---------------------------------------------------------*/
   4:Core/Src/voltage.c **** 
   5:Core/Src/voltage.c **** /* Private user code ---------------------------------------------------------*/
   6:Core/Src/voltage.c **** void voltage_init(void)
   7:Core/Src/voltage.c **** {
   8:Core/Src/voltage.c ****     dac_init();
   9:Core/Src/voltage.c ****     adc_set_channel(ADC_CHANNEL_SIGNAL);
  10:Core/Src/voltage.c ****     // adc_set_channel(ADC_CHANNEL_AMP);
  11:Core/Src/voltage.c ****     reset_muxs();
  12:Core/Src/voltage.c ****     HAL_TIM_Base_Start(&htim10);
  13:Core/Src/voltage.c **** }
  14:Core/Src/voltage.c **** 
  15:Core/Src/voltage.c **** void us_delay(uint16_t micro_s)
  16:Core/Src/voltage.c **** {
  30              		.loc 1 16 1 view -0
  31              		.cfi_startproc
  32              		@ args = 0, pretend = 0, frame = 0
  33              		@ frame_needed = 0, uses_anonymous_args = 0
  34              		@ link register save eliminated.
  17:Core/Src/voltage.c ****     // Requires a timer running at 1Mhz
  18:Core/Src/voltage.c ****     __HAL_TIM_SET_COUNTER(&htim10, 0); // set the counter value a 0
  35              		.loc 1 18 5 view .LVU1
  36 0000 034B     		ldr	r3, .L3
  37 0002 1A68     		ldr	r2, [r3]
  38 0004 0023     		movs	r3, #0
  39 0006 5362     		str	r3, [r2, #36]
  19:Core/Src/voltage.c ****     while (__HAL_TIM_GET_COUNTER(&htim10) < micro_s)
ARM GAS  /var/folders/rj/9n9dpytj2n74_jwlj_p0xk9m0000gn/T//ccaWyzcK.s 			page 2


  40              		.loc 1 19 5 view .LVU2
  41              	.L2:
  42              		.loc 1 19 43 discriminator 1 view .LVU3
  43              		.loc 1 19 12 is_stmt 0 discriminator 1 view .LVU4
  44 0008 536A     		ldr	r3, [r2, #36]
  45              		.loc 1 19 43 discriminator 1 view .LVU5
  46 000a 8342     		cmp	r3, r0
  47 000c FCD3     		bcc	.L2
  20:Core/Src/voltage.c ****         ; // wait for the counter to reach the us input in the parameter
  21:Core/Src/voltage.c **** }
  48              		.loc 1 21 1 view .LVU6
  49 000e 7047     		bx	lr
  50              	.L4:
  51              		.align	2
  52              	.L3:
  53 0010 00000000 		.word	htim10
  54              		.cfi_endproc
  55              	.LFE221:
  57              		.section	.text.dac_write,"ax",%progbits
  58              		.align	1
  59              		.global	dac_write
  60              		.syntax unified
  61              		.thumb
  62              		.thumb_func
  64              	dac_write:
  65              	.LVL1:
  66              	.LFB225:
  22:Core/Src/voltage.c **** 
  23:Core/Src/voltage.c **** void dac_init(void)
  24:Core/Src/voltage.c **** {
  25:Core/Src/voltage.c ****     if (HAL_I2C_IsDeviceReady(&hi2c1, DAC_device_addr, 2, 1000) != HAL_OK)
  26:Core/Src/voltage.c ****     {
  27:Core/Src/voltage.c ****         Error_Handler();
  28:Core/Src/voltage.c ****     }
  29:Core/Src/voltage.c ****     // Reset the DAC
  30:Core/Src/voltage.c ****     dac_write(DAC_mem_addr_trigger, DAC_trigger_reset | DAC_trigger_config_reset);
  31:Core/Src/voltage.c ****     // Power up DAC
  32:Core/Src/voltage.c ****     dac_write(DAC_mem_addr_general_config, DAC_general_config_pdn_power_up);
  33:Core/Src/voltage.c **** }
  34:Core/Src/voltage.c **** 
  35:Core/Src/voltage.c **** void dac_drain(void)
  36:Core/Src/voltage.c **** {
  37:Core/Src/voltage.c ****     dac_write(DAC_mem_addr_dac_data, 0x0000);
  38:Core/Src/voltage.c ****     dac_write(DAC_mem_addr_general_config, DAC_general_config_pdn_power_down_10k);
  39:Core/Src/voltage.c ****     HAL_Delay(10);
  40:Core/Src/voltage.c ****     dac_write(DAC_mem_addr_general_config, DAC_general_config_pdn_power_up);
  41:Core/Src/voltage.c **** }
  42:Core/Src/voltage.c **** 
  43:Core/Src/voltage.c **** void dac_set_voltage(uint16_t voltage)
  44:Core/Src/voltage.c **** {
  45:Core/Src/voltage.c ****     dac_write(DAC_mem_addr_dac_data, voltage << 2);
  46:Core/Src/voltage.c **** }
  47:Core/Src/voltage.c **** 
  48:Core/Src/voltage.c **** void dac_write(uint16_t memory_addr, uint16_t data)
  49:Core/Src/voltage.c **** {
  67              		.loc 1 49 1 is_stmt 1 view -0
  68              		.cfi_startproc
ARM GAS  /var/folders/rj/9n9dpytj2n74_jwlj_p0xk9m0000gn/T//ccaWyzcK.s 			page 3


  69              		@ args = 0, pretend = 0, frame = 8
  70              		@ frame_needed = 0, uses_anonymous_args = 0
  71              		.loc 1 49 1 is_stmt 0 view .LVU8
  72 0000 00B5     		push	{lr}
  73              		.cfi_def_cfa_offset 4
  74              		.cfi_offset 14, -4
  75 0002 87B0     		sub	sp, sp, #28
  76              		.cfi_def_cfa_offset 32
  77 0004 0246     		mov	r2, r0
  50:Core/Src/voltage.c ****     uint8_t buf[2] = {0};
  78              		.loc 1 50 5 is_stmt 1 view .LVU9
  79              		.loc 1 50 13 is_stmt 0 view .LVU10
  80 0006 0023     		movs	r3, #0
  81 0008 ADF81430 		strh	r3, [sp, #20]	@ movhi
  51:Core/Src/voltage.c ****     buf[0] = data >> 8;
  82              		.loc 1 51 5 is_stmt 1 view .LVU11
  83              		.loc 1 51 12 is_stmt 0 view .LVU12
  84 000c 0B0A     		lsrs	r3, r1, #8
  85 000e 8DF81430 		strb	r3, [sp, #20]
  52:Core/Src/voltage.c ****     buf[1] = data & 0xff;
  86              		.loc 1 52 5 is_stmt 1 view .LVU13
  87              		.loc 1 52 12 is_stmt 0 view .LVU14
  88 0012 8DF81510 		strb	r1, [sp, #21]
  53:Core/Src/voltage.c ****     if (HAL_I2C_Mem_Write(&hi2c1, DAC_device_addr, memory_addr, 1, buf, 2, 1000) != HAL_OK)
  89              		.loc 1 53 5 is_stmt 1 view .LVU15
  90              		.loc 1 53 9 is_stmt 0 view .LVU16
  91 0016 4FF47A73 		mov	r3, #1000
  92 001a 0293     		str	r3, [sp, #8]
  93 001c 0223     		movs	r3, #2
  94 001e 0193     		str	r3, [sp, #4]
  95 0020 05AB     		add	r3, sp, #20
  96 0022 0093     		str	r3, [sp]
  97 0024 0123     		movs	r3, #1
  98 0026 9021     		movs	r1, #144
  99              	.LVL2:
 100              		.loc 1 53 9 view .LVU17
 101 0028 0448     		ldr	r0, .L9
 102              	.LVL3:
 103              		.loc 1 53 9 view .LVU18
 104 002a FFF7FEFF 		bl	HAL_I2C_Mem_Write
 105              	.LVL4:
 106              		.loc 1 53 8 discriminator 1 view .LVU19
 107 002e 10B9     		cbnz	r0, .L8
 108              	.L5:
  54:Core/Src/voltage.c ****     {
  55:Core/Src/voltage.c ****         Error_Handler();
  56:Core/Src/voltage.c ****     }
  57:Core/Src/voltage.c **** }
 109              		.loc 1 57 1 view .LVU20
 110 0030 07B0     		add	sp, sp, #28
 111              		.cfi_remember_state
 112              		.cfi_def_cfa_offset 4
 113              		@ sp needed
 114 0032 5DF804FB 		ldr	pc, [sp], #4
 115              	.L8:
 116              		.cfi_restore_state
  55:Core/Src/voltage.c ****     }
ARM GAS  /var/folders/rj/9n9dpytj2n74_jwlj_p0xk9m0000gn/T//ccaWyzcK.s 			page 4


 117              		.loc 1 55 9 is_stmt 1 view .LVU21
 118 0036 FFF7FEFF 		bl	Error_Handler
 119              	.LVL5:
 120              		.loc 1 57 1 is_stmt 0 view .LVU22
 121 003a F9E7     		b	.L5
 122              	.L10:
 123              		.align	2
 124              	.L9:
 125 003c 00000000 		.word	hi2c1
 126              		.cfi_endproc
 127              	.LFE225:
 129              		.section	.text.dac_init,"ax",%progbits
 130              		.align	1
 131              		.global	dac_init
 132              		.syntax unified
 133              		.thumb
 134              		.thumb_func
 136              	dac_init:
 137              	.LFB222:
  24:Core/Src/voltage.c ****     if (HAL_I2C_IsDeviceReady(&hi2c1, DAC_device_addr, 2, 1000) != HAL_OK)
 138              		.loc 1 24 1 is_stmt 1 view -0
 139              		.cfi_startproc
 140              		@ args = 0, pretend = 0, frame = 0
 141              		@ frame_needed = 0, uses_anonymous_args = 0
 142 0000 08B5     		push	{r3, lr}
 143              		.cfi_def_cfa_offset 8
 144              		.cfi_offset 3, -8
 145              		.cfi_offset 14, -4
  25:Core/Src/voltage.c ****     {
 146              		.loc 1 25 5 view .LVU24
  25:Core/Src/voltage.c ****     {
 147              		.loc 1 25 9 is_stmt 0 view .LVU25
 148 0002 4FF47A73 		mov	r3, #1000
 149 0006 0222     		movs	r2, #2
 150 0008 9021     		movs	r1, #144
 151 000a 0848     		ldr	r0, .L15
 152 000c FFF7FEFF 		bl	HAL_I2C_IsDeviceReady
 153              	.LVL6:
  25:Core/Src/voltage.c ****     {
 154              		.loc 1 25 8 discriminator 1 view .LVU26
 155 0010 48B9     		cbnz	r0, .L14
 156              	.L12:
  30:Core/Src/voltage.c ****     // Power up DAC
 157              		.loc 1 30 5 is_stmt 1 view .LVU27
 158 0012 4FF40271 		mov	r1, #520
 159 0016 D320     		movs	r0, #211
 160 0018 FFF7FEFF 		bl	dac_write
 161              	.LVL7:
  32:Core/Src/voltage.c **** }
 162              		.loc 1 32 5 view .LVU28
 163 001c 0021     		movs	r1, #0
 164 001e D120     		movs	r0, #209
 165 0020 FFF7FEFF 		bl	dac_write
 166              	.LVL8:
  33:Core/Src/voltage.c **** 
 167              		.loc 1 33 1 is_stmt 0 view .LVU29
 168 0024 08BD     		pop	{r3, pc}
ARM GAS  /var/folders/rj/9n9dpytj2n74_jwlj_p0xk9m0000gn/T//ccaWyzcK.s 			page 5


 169              	.L14:
  27:Core/Src/voltage.c ****     }
 170              		.loc 1 27 9 is_stmt 1 view .LVU30
 171 0026 FFF7FEFF 		bl	Error_Handler
 172              	.LVL9:
 173 002a F2E7     		b	.L12
 174              	.L16:
 175              		.align	2
 176              	.L15:
 177 002c 00000000 		.word	hi2c1
 178              		.cfi_endproc
 179              	.LFE222:
 181              		.section	.text.dac_drain,"ax",%progbits
 182              		.align	1
 183              		.global	dac_drain
 184              		.syntax unified
 185              		.thumb
 186              		.thumb_func
 188              	dac_drain:
 189              	.LFB223:
  36:Core/Src/voltage.c ****     dac_write(DAC_mem_addr_dac_data, 0x0000);
 190              		.loc 1 36 1 view -0
 191              		.cfi_startproc
 192              		@ args = 0, pretend = 0, frame = 0
 193              		@ frame_needed = 0, uses_anonymous_args = 0
 194 0000 08B5     		push	{r3, lr}
 195              		.cfi_def_cfa_offset 8
 196              		.cfi_offset 3, -8
 197              		.cfi_offset 14, -4
  37:Core/Src/voltage.c ****     dac_write(DAC_mem_addr_general_config, DAC_general_config_pdn_power_down_10k);
 198              		.loc 1 37 5 view .LVU32
 199 0002 0021     		movs	r1, #0
 200 0004 2120     		movs	r0, #33
 201 0006 FFF7FEFF 		bl	dac_write
 202              	.LVL10:
  38:Core/Src/voltage.c ****     HAL_Delay(10);
 203              		.loc 1 38 5 view .LVU33
 204 000a 0821     		movs	r1, #8
 205 000c D120     		movs	r0, #209
 206 000e FFF7FEFF 		bl	dac_write
 207              	.LVL11:
  39:Core/Src/voltage.c ****     dac_write(DAC_mem_addr_general_config, DAC_general_config_pdn_power_up);
 208              		.loc 1 39 5 view .LVU34
 209 0012 0A20     		movs	r0, #10
 210 0014 FFF7FEFF 		bl	HAL_Delay
 211              	.LVL12:
  40:Core/Src/voltage.c **** }
 212              		.loc 1 40 5 view .LVU35
 213 0018 0021     		movs	r1, #0
 214 001a D120     		movs	r0, #209
 215 001c FFF7FEFF 		bl	dac_write
 216              	.LVL13:
  41:Core/Src/voltage.c **** 
 217              		.loc 1 41 1 is_stmt 0 view .LVU36
 218 0020 08BD     		pop	{r3, pc}
 219              		.cfi_endproc
 220              	.LFE223:
ARM GAS  /var/folders/rj/9n9dpytj2n74_jwlj_p0xk9m0000gn/T//ccaWyzcK.s 			page 6


 222              		.section	.text.dac_set_voltage,"ax",%progbits
 223              		.align	1
 224              		.global	dac_set_voltage
 225              		.syntax unified
 226              		.thumb
 227              		.thumb_func
 229              	dac_set_voltage:
 230              	.LVL14:
 231              	.LFB224:
  44:Core/Src/voltage.c ****     dac_write(DAC_mem_addr_dac_data, voltage << 2);
 232              		.loc 1 44 1 is_stmt 1 view -0
 233              		.cfi_startproc
 234              		@ args = 0, pretend = 0, frame = 0
 235              		@ frame_needed = 0, uses_anonymous_args = 0
  44:Core/Src/voltage.c ****     dac_write(DAC_mem_addr_dac_data, voltage << 2);
 236              		.loc 1 44 1 is_stmt 0 view .LVU38
 237 0000 08B5     		push	{r3, lr}
 238              		.cfi_def_cfa_offset 8
 239              		.cfi_offset 3, -8
 240              		.cfi_offset 14, -4
  45:Core/Src/voltage.c **** }
 241              		.loc 1 45 5 is_stmt 1 view .LVU39
 242 0002 8100     		lsls	r1, r0, #2
 243 0004 89B2     		uxth	r1, r1
 244 0006 2120     		movs	r0, #33
 245              	.LVL15:
  45:Core/Src/voltage.c **** }
 246              		.loc 1 45 5 is_stmt 0 view .LVU40
 247 0008 FFF7FEFF 		bl	dac_write
 248              	.LVL16:
  46:Core/Src/voltage.c **** 
 249              		.loc 1 46 1 view .LVU41
 250 000c 08BD     		pop	{r3, pc}
 251              		.cfi_endproc
 252              	.LFE224:
 254              		.section	.text.adc_set_channel,"ax",%progbits
 255              		.align	1
 256              		.global	adc_set_channel
 257              		.syntax unified
 258              		.thumb
 259              		.thumb_func
 261              	adc_set_channel:
 262              	.LVL17:
 263              	.LFB226:
  58:Core/Src/voltage.c **** 
  59:Core/Src/voltage.c **** void adc_set_channel(ADC_Channel channel)
  60:Core/Src/voltage.c **** {
 264              		.loc 1 60 1 is_stmt 1 view -0
 265              		.cfi_startproc
 266              		@ args = 0, pretend = 0, frame = 16
 267              		@ frame_needed = 0, uses_anonymous_args = 0
 268              		.loc 1 60 1 is_stmt 0 view .LVU43
 269 0000 00B5     		push	{lr}
 270              		.cfi_def_cfa_offset 4
 271              		.cfi_offset 14, -4
 272 0002 85B0     		sub	sp, sp, #20
 273              		.cfi_def_cfa_offset 24
ARM GAS  /var/folders/rj/9n9dpytj2n74_jwlj_p0xk9m0000gn/T//ccaWyzcK.s 			page 7


  61:Core/Src/voltage.c ****     ADC_ChannelConfTypeDef sConfig = {channel, 1, ADC_SAMPLETIME_3CYCLES, 0};
 274              		.loc 1 61 5 is_stmt 1 view .LVU44
 275              		.loc 1 61 28 is_stmt 0 view .LVU45
 276 0004 0090     		str	r0, [sp]
 277 0006 0123     		movs	r3, #1
 278 0008 0193     		str	r3, [sp, #4]
 279 000a 0023     		movs	r3, #0
 280 000c 0293     		str	r3, [sp, #8]
 281 000e 0393     		str	r3, [sp, #12]
  62:Core/Src/voltage.c ****     if (HAL_ADC_ConfigChannel(&hadc1, &sConfig) != HAL_OK)
 282              		.loc 1 62 5 is_stmt 1 view .LVU46
 283              		.loc 1 62 9 is_stmt 0 view .LVU47
 284 0010 6946     		mov	r1, sp
 285 0012 0548     		ldr	r0, .L25
 286              	.LVL18:
 287              		.loc 1 62 9 view .LVU48
 288 0014 FFF7FEFF 		bl	HAL_ADC_ConfigChannel
 289              	.LVL19:
 290              		.loc 1 62 8 discriminator 1 view .LVU49
 291 0018 10B9     		cbnz	r0, .L24
 292              	.L21:
  63:Core/Src/voltage.c ****     {
  64:Core/Src/voltage.c ****         Error_Handler();
  65:Core/Src/voltage.c ****     }
  66:Core/Src/voltage.c **** }
 293              		.loc 1 66 1 view .LVU50
 294 001a 05B0     		add	sp, sp, #20
 295              		.cfi_remember_state
 296              		.cfi_def_cfa_offset 4
 297              		@ sp needed
 298 001c 5DF804FB 		ldr	pc, [sp], #4
 299              	.L24:
 300              		.cfi_restore_state
  64:Core/Src/voltage.c ****     }
 301              		.loc 1 64 9 is_stmt 1 view .LVU51
 302 0020 FFF7FEFF 		bl	Error_Handler
 303              	.LVL20:
 304              		.loc 1 66 1 is_stmt 0 view .LVU52
 305 0024 F9E7     		b	.L21
 306              	.L26:
 307 0026 00BF     		.align	2
 308              	.L25:
 309 0028 00000000 		.word	hadc1
 310              		.cfi_endproc
 311              	.LFE226:
 313              		.section	.text.adc_average,"ax",%progbits
 314              		.align	1
 315              		.global	adc_average
 316              		.syntax unified
 317              		.thumb
 318              		.thumb_func
 320              	adc_average:
 321              	.LVL21:
 322              	.LFB227:
  67:Core/Src/voltage.c **** 
  68:Core/Src/voltage.c **** uint16_t adc_average(uint16_t adc_samples)
  69:Core/Src/voltage.c **** {
ARM GAS  /var/folders/rj/9n9dpytj2n74_jwlj_p0xk9m0000gn/T//ccaWyzcK.s 			page 8


 323              		.loc 1 69 1 is_stmt 1 view -0
 324              		.cfi_startproc
 325              		@ args = 0, pretend = 0, frame = 0
 326              		@ frame_needed = 0, uses_anonymous_args = 0
 327              		.loc 1 69 1 is_stmt 0 view .LVU54
 328 0000 F8B5     		push	{r3, r4, r5, r6, r7, lr}
 329              		.cfi_def_cfa_offset 24
 330              		.cfi_offset 3, -24
 331              		.cfi_offset 4, -20
 332              		.cfi_offset 5, -16
 333              		.cfi_offset 6, -12
 334              		.cfi_offset 7, -8
 335              		.cfi_offset 14, -4
 336 0002 0746     		mov	r7, r0
  70:Core/Src/voltage.c ****     uint32_t sum = 0;
 337              		.loc 1 70 5 is_stmt 1 view .LVU55
 338              	.LVL22:
  71:Core/Src/voltage.c ****     for (uint16_t i = 0; i < adc_samples; i++)
 339              		.loc 1 71 5 view .LVU56
 340              	.LBB2:
 341              		.loc 1 71 10 view .LVU57
 342              		.loc 1 71 19 is_stmt 0 view .LVU58
 343 0004 0024     		movs	r4, #0
 344              	.LBE2:
  70:Core/Src/voltage.c ****     uint32_t sum = 0;
 345              		.loc 1 70 14 view .LVU59
 346 0006 2646     		mov	r6, r4
 347              	.LBB3:
 348              		.loc 1 71 5 view .LVU60
 349 0008 0EE0     		b	.L28
 350              	.LVL23:
 351              	.L29:
  72:Core/Src/voltage.c ****     {
  73:Core/Src/voltage.c ****         HAL_ADC_Start(&hadc1);
 352              		.loc 1 73 9 is_stmt 1 view .LVU61
 353 000a 0A4D     		ldr	r5, .L31
 354 000c 2846     		mov	r0, r5
 355 000e FFF7FEFF 		bl	HAL_ADC_Start
 356              	.LVL24:
  74:Core/Src/voltage.c ****         HAL_ADC_PollForConversion(&hadc1, 1000);
 357              		.loc 1 74 9 view .LVU62
 358 0012 4FF47A71 		mov	r1, #1000
 359 0016 2846     		mov	r0, r5
 360 0018 FFF7FEFF 		bl	HAL_ADC_PollForConversion
 361              	.LVL25:
  75:Core/Src/voltage.c ****         sum += HAL_ADC_GetValue(&hadc1);
 362              		.loc 1 75 9 view .LVU63
 363              		.loc 1 75 16 is_stmt 0 view .LVU64
 364 001c 2846     		mov	r0, r5
 365 001e FFF7FEFF 		bl	HAL_ADC_GetValue
 366              	.LVL26:
 367              		.loc 1 75 13 discriminator 1 view .LVU65
 368 0022 0644     		add	r6, r6, r0
 369              	.LVL27:
  71:Core/Src/voltage.c ****     {
 370              		.loc 1 71 44 is_stmt 1 discriminator 3 view .LVU66
 371 0024 0134     		adds	r4, r4, #1
ARM GAS  /var/folders/rj/9n9dpytj2n74_jwlj_p0xk9m0000gn/T//ccaWyzcK.s 			page 9


 372              	.LVL28:
  71:Core/Src/voltage.c ****     {
 373              		.loc 1 71 44 is_stmt 0 discriminator 3 view .LVU67
 374 0026 A4B2     		uxth	r4, r4
 375              	.LVL29:
 376              	.L28:
  71:Core/Src/voltage.c ****     {
 377              		.loc 1 71 28 is_stmt 1 discriminator 1 view .LVU68
 378 0028 BC42     		cmp	r4, r7
 379 002a EED3     		bcc	.L29
 380              	.LBE3:
  76:Core/Src/voltage.c ****     }
  77:Core/Src/voltage.c ****     return (uint16_t)sum / adc_samples;
 381              		.loc 1 77 5 view .LVU69
 382              		.loc 1 77 12 is_stmt 0 view .LVU70
 383 002c B6B2     		uxth	r6, r6
 384              	.LVL30:
  78:Core/Src/voltage.c **** }
 385              		.loc 1 78 1 view .LVU71
 386 002e B6FBF7F0 		udiv	r0, r6, r7
 387 0032 F8BD     		pop	{r3, r4, r5, r6, r7, pc}
 388              	.LVL31:
 389              	.L32:
 390              		.loc 1 78 1 view .LVU72
 391              		.align	2
 392              	.L31:
 393 0034 00000000 		.word	hadc1
 394              		.cfi_endproc
 395              	.LFE227:
 397              		.section	.text.reset_muxs,"ax",%progbits
 398              		.align	1
 399              		.global	reset_muxs
 400              		.syntax unified
 401              		.thumb
 402              		.thumb_func
 404              	reset_muxs:
 405              	.LFB228:
  79:Core/Src/voltage.c **** 
  80:Core/Src/voltage.c **** void reset_muxs(void)
  81:Core/Src/voltage.c **** {
 406              		.loc 1 81 1 is_stmt 1 view -0
 407              		.cfi_startproc
 408              		@ args = 0, pretend = 0, frame = 0
 409              		@ frame_needed = 0, uses_anonymous_args = 0
 410              		@ link register save eliminated.
  82:Core/Src/voltage.c ****     GPIOSW->BSRR = 0xffff << 16;
 411              		.loc 1 82 5 view .LVU74
 412              		.loc 1 82 18 is_stmt 0 view .LVU75
 413 0000 014B     		ldr	r3, .L34
 414 0002 024A     		ldr	r2, .L34+4
 415 0004 9A61     		str	r2, [r3, #24]
  83:Core/Src/voltage.c **** }
 416              		.loc 1 83 1 view .LVU76
 417 0006 7047     		bx	lr
 418              	.L35:
 419              		.align	2
 420              	.L34:
ARM GAS  /var/folders/rj/9n9dpytj2n74_jwlj_p0xk9m0000gn/T//ccaWyzcK.s 			page 10


 421 0008 00080240 		.word	1073874944
 422 000c 0000FFFF 		.word	-65536
 423              		.cfi_endproc
 424              	.LFE228:
 426              		.section	.text.voltage_init,"ax",%progbits
 427              		.align	1
 428              		.global	voltage_init
 429              		.syntax unified
 430              		.thumb
 431              		.thumb_func
 433              	voltage_init:
 434              	.LFB220:
   7:Core/Src/voltage.c ****     dac_init();
 435              		.loc 1 7 1 is_stmt 1 view -0
 436              		.cfi_startproc
 437              		@ args = 0, pretend = 0, frame = 0
 438              		@ frame_needed = 0, uses_anonymous_args = 0
 439 0000 08B5     		push	{r3, lr}
 440              		.cfi_def_cfa_offset 8
 441              		.cfi_offset 3, -8
 442              		.cfi_offset 14, -4
   8:Core/Src/voltage.c ****     adc_set_channel(ADC_CHANNEL_SIGNAL);
 443              		.loc 1 8 5 view .LVU78
 444 0002 FFF7FEFF 		bl	dac_init
 445              	.LVL32:
   9:Core/Src/voltage.c ****     // adc_set_channel(ADC_CHANNEL_AMP);
 446              		.loc 1 9 5 view .LVU79
 447 0006 0320     		movs	r0, #3
 448 0008 FFF7FEFF 		bl	adc_set_channel
 449              	.LVL33:
  11:Core/Src/voltage.c ****     HAL_TIM_Base_Start(&htim10);
 450              		.loc 1 11 5 view .LVU80
 451 000c FFF7FEFF 		bl	reset_muxs
 452              	.LVL34:
  12:Core/Src/voltage.c **** }
 453              		.loc 1 12 5 view .LVU81
 454 0010 0148     		ldr	r0, .L38
 455 0012 FFF7FEFF 		bl	HAL_TIM_Base_Start
 456              	.LVL35:
  13:Core/Src/voltage.c **** 
 457              		.loc 1 13 1 is_stmt 0 view .LVU82
 458 0016 08BD     		pop	{r3, pc}
 459              	.L39:
 460              		.align	2
 461              	.L38:
 462 0018 00000000 		.word	htim10
 463              		.cfi_endproc
 464              	.LFE220:
 466              		.section	.text.measure_dac_voltage,"ax",%progbits
 467              		.align	1
 468              		.global	measure_dac_voltage
 469              		.syntax unified
 470              		.thumb
 471              		.thumb_func
 473              	measure_dac_voltage:
 474              	.LVL36:
 475              	.LFB229:
ARM GAS  /var/folders/rj/9n9dpytj2n74_jwlj_p0xk9m0000gn/T//ccaWyzcK.s 			page 11


  84:Core/Src/voltage.c **** 
  85:Core/Src/voltage.c **** uint16_t measure_dac_voltage(uint16_t adc_samples, uint16_t voltage_settle_time)
  86:Core/Src/voltage.c **** {
 476              		.loc 1 86 1 is_stmt 1 view -0
 477              		.cfi_startproc
 478              		@ args = 0, pretend = 0, frame = 0
 479              		@ frame_needed = 0, uses_anonymous_args = 0
 480              		.loc 1 86 1 is_stmt 0 view .LVU84
 481 0000 38B5     		push	{r3, r4, r5, lr}
 482              		.cfi_def_cfa_offset 16
 483              		.cfi_offset 3, -16
 484              		.cfi_offset 4, -12
 485              		.cfi_offset 5, -8
 486              		.cfi_offset 14, -4
 487 0002 0446     		mov	r4, r0
  87:Core/Src/voltage.c ****     GPIOSW->BSRR = SW_R1_Calib_Pin;
 488              		.loc 1 87 5 is_stmt 1 view .LVU85
 489              		.loc 1 87 18 is_stmt 0 view .LVU86
 490 0004 064D     		ldr	r5, .L42
 491 0006 0823     		movs	r3, #8
 492 0008 AB61     		str	r3, [r5, #24]
  88:Core/Src/voltage.c ****     us_delay(voltage_settle_time);
 493              		.loc 1 88 5 is_stmt 1 view .LVU87
 494 000a 0846     		mov	r0, r1
 495              	.LVL37:
 496              		.loc 1 88 5 is_stmt 0 view .LVU88
 497 000c FFF7FEFF 		bl	us_delay
 498              	.LVL38:
  89:Core/Src/voltage.c ****     uint16_t adc_val = adc_average(adc_samples);
 499              		.loc 1 89 5 is_stmt 1 view .LVU89
 500              		.loc 1 89 24 is_stmt 0 view .LVU90
 501 0010 2046     		mov	r0, r4
 502 0012 FFF7FEFF 		bl	adc_average
 503              	.LVL39:
  90:Core/Src/voltage.c ****     GPIOSW->BSRR = SW_R1_Calib_Pin << 16;
 504              		.loc 1 90 5 is_stmt 1 view .LVU91
 505              		.loc 1 90 18 is_stmt 0 view .LVU92
 506 0016 4FF40023 		mov	r3, #524288
 507 001a AB61     		str	r3, [r5, #24]
  91:Core/Src/voltage.c ****     return adc_val;
 508              		.loc 1 91 5 is_stmt 1 view .LVU93
  92:Core/Src/voltage.c **** }
 509              		.loc 1 92 1 is_stmt 0 view .LVU94
 510 001c 38BD     		pop	{r3, r4, r5, pc}
 511              	.LVL40:
 512              	.L43:
 513              		.loc 1 92 1 view .LVU95
 514 001e 00BF     		.align	2
 515              	.L42:
 516 0020 00080240 		.word	1073874944
 517              		.cfi_endproc
 518              	.LFE229:
 520              		.section	.text.measure_calib_voltage,"ax",%progbits
 521              		.align	1
 522              		.global	measure_calib_voltage
 523              		.syntax unified
 524              		.thumb
ARM GAS  /var/folders/rj/9n9dpytj2n74_jwlj_p0xk9m0000gn/T//ccaWyzcK.s 			page 12


 525              		.thumb_func
 527              	measure_calib_voltage:
 528              	.LVL41:
 529              	.LFB230:
  93:Core/Src/voltage.c **** 
  94:Core/Src/voltage.c **** uint16_t measure_calib_voltage(uint16_t adc_samples, uint16_t voltage_settle_time)
  95:Core/Src/voltage.c **** {
 530              		.loc 1 95 1 is_stmt 1 view -0
 531              		.cfi_startproc
 532              		@ args = 0, pretend = 0, frame = 0
 533              		@ frame_needed = 0, uses_anonymous_args = 0
 534              		.loc 1 95 1 is_stmt 0 view .LVU97
 535 0000 38B5     		push	{r3, r4, r5, lr}
 536              		.cfi_def_cfa_offset 16
 537              		.cfi_offset 3, -16
 538              		.cfi_offset 4, -12
 539              		.cfi_offset 5, -8
 540              		.cfi_offset 14, -4
 541 0002 0446     		mov	r4, r0
  96:Core/Src/voltage.c ****     GPIOSW->BSRR = SW_R1_Calib_Pin;
 542              		.loc 1 96 5 is_stmt 1 view .LVU98
 543              		.loc 1 96 18 is_stmt 0 view .LVU99
 544 0004 064D     		ldr	r5, .L46
 545 0006 0823     		movs	r3, #8
 546 0008 AB61     		str	r3, [r5, #24]
  97:Core/Src/voltage.c ****     us_delay(voltage_settle_time);
 547              		.loc 1 97 5 is_stmt 1 view .LVU100
 548 000a 0846     		mov	r0, r1
 549              	.LVL42:
 550              		.loc 1 97 5 is_stmt 0 view .LVU101
 551 000c FFF7FEFF 		bl	us_delay
 552              	.LVL43:
  98:Core/Src/voltage.c ****     uint16_t adc_val = adc_average(adc_samples);
 553              		.loc 1 98 5 is_stmt 1 view .LVU102
 554              		.loc 1 98 24 is_stmt 0 view .LVU103
 555 0010 2046     		mov	r0, r4
 556 0012 FFF7FEFF 		bl	adc_average
 557              	.LVL44:
  99:Core/Src/voltage.c ****     GPIOSW->BSRR = SW_R1_Calib_Pin << 16;
 558              		.loc 1 99 5 is_stmt 1 view .LVU104
 559              		.loc 1 99 18 is_stmt 0 view .LVU105
 560 0016 4FF40023 		mov	r3, #524288
 561 001a AB61     		str	r3, [r5, #24]
 100:Core/Src/voltage.c ****     return adc_val;
 562              		.loc 1 100 5 is_stmt 1 view .LVU106
 101:Core/Src/voltage.c **** }
 563              		.loc 1 101 1 is_stmt 0 view .LVU107
 564 001c 38BD     		pop	{r3, r4, r5, pc}
 565              	.LVL45:
 566              	.L47:
 567              		.loc 1 101 1 view .LVU108
 568 001e 00BF     		.align	2
 569              	.L46:
 570 0020 00080240 		.word	1073874944
 571              		.cfi_endproc
 572              	.LFE230:
 574              		.section	.text.measure_pin_voltage,"ax",%progbits
ARM GAS  /var/folders/rj/9n9dpytj2n74_jwlj_p0xk9m0000gn/T//ccaWyzcK.s 			page 13


 575              		.align	1
 576              		.global	measure_pin_voltage
 577              		.syntax unified
 578              		.thumb
 579              		.thumb_func
 581              	measure_pin_voltage:
 582              	.LVL46:
 583              	.LFB231:
 102:Core/Src/voltage.c **** 
 103:Core/Src/voltage.c **** uint16_t measure_pin_voltage(Direction direction, Electrode_Type electrode, uint16_t adc_samples, u
 104:Core/Src/voltage.c **** {
 584              		.loc 1 104 1 is_stmt 1 view -0
 585              		.cfi_startproc
 586              		@ args = 0, pretend = 0, frame = 0
 587              		@ frame_needed = 0, uses_anonymous_args = 0
 588              		.loc 1 104 1 is_stmt 0 view .LVU110
 589 0000 2DE9F843 		push	{r3, r4, r5, r6, r7, r8, r9, lr}
 590              		.cfi_def_cfa_offset 32
 591              		.cfi_offset 3, -32
 592              		.cfi_offset 4, -28
 593              		.cfi_offset 5, -24
 594              		.cfi_offset 6, -20
 595              		.cfi_offset 7, -16
 596              		.cfi_offset 8, -12
 597              		.cfi_offset 9, -8
 598              		.cfi_offset 14, -4
 599 0004 0C46     		mov	r4, r1
 600 0006 1546     		mov	r5, r2
 601 0008 9846     		mov	r8, r3
 105:Core/Src/voltage.c ****     uint16_t adc_forward_val = 0, adc_reverse_val = 0;
 602              		.loc 1 105 5 is_stmt 1 view .LVU111
 603              	.LVL47:
 106:Core/Src/voltage.c **** 
 107:Core/Src/voltage.c ****     switch (direction)
 604              		.loc 1 107 5 view .LVU112
 605 000a 0646     		mov	r6, r0
 606 000c 0028     		cmp	r0, #0
 607 000e 37D0     		beq	.L56
 608 0010 0128     		cmp	r0, #1
 609 0012 68D1     		bne	.L57
 108:Core/Src/voltage.c ****     {
 109:Core/Src/voltage.c ****     case BIDIRECTIONAL:
 110:Core/Src/voltage.c ****         switch (electrode)
 610              		.loc 1 110 9 view .LVU113
 611 0014 0129     		cmp	r1, #1
 612 0016 12D0     		beq	.L51
 613 0018 0229     		cmp	r1, #2
 614 001a 22D0     		beq	.L52
 615 001c 0029     		cmp	r1, #0
 616 001e 45D1     		bne	.L58
 111:Core/Src/voltage.c ****         {
 112:Core/Src/voltage.c ****         case Au:
 113:Core/Src/voltage.c ****             GPIOSW->BSRR = SW_R1_Au2_Pin | SW_Shield1_GND_Pin;
 617              		.loc 1 113 13 view .LVU114
 618              		.loc 1 113 26 is_stmt 0 view .LVU115
 619 0020 384E     		ldr	r6, .L62
 620 0022 44F22003 		movw	r3, #16416
ARM GAS  /var/folders/rj/9n9dpytj2n74_jwlj_p0xk9m0000gn/T//ccaWyzcK.s 			page 14


 621              	.LVL48:
 622              		.loc 1 113 26 view .LVU116
 623 0026 B361     		str	r3, [r6, #24]
 114:Core/Src/voltage.c ****             us_delay(voltage_settle_time);
 624              		.loc 1 114 13 is_stmt 1 view .LVU117
 625 0028 4046     		mov	r0, r8
 626              	.LVL49:
 627              		.loc 1 114 13 is_stmt 0 view .LVU118
 628 002a FFF7FEFF 		bl	us_delay
 629              	.LVL50:
 115:Core/Src/voltage.c ****             adc_average(adc_samples);
 630              		.loc 1 115 13 is_stmt 1 view .LVU119
 631 002e 2846     		mov	r0, r5
 632 0030 FFF7FEFF 		bl	adc_average
 633              	.LVL51:
 116:Core/Src/voltage.c ****             direction = UNIDIRECTIONAL;
 634              		.loc 1 116 13 view .LVU120
 117:Core/Src/voltage.c ****             GPIOSW->BSRR = (SW_Au_Pin_Msk | SW_Shield_Pin_Msk) << 16;
 635              		.loc 1 117 13 view .LVU121
 636              		.loc 1 117 26 is_stmt 0 view .LVU122
 637 0034 344B     		ldr	r3, .L62+4
 638 0036 B361     		str	r3, [r6, #24]
 118:Core/Src/voltage.c ****             break;
 639              		.loc 1 118 13 is_stmt 1 view .LVU123
 116:Core/Src/voltage.c ****             direction = UNIDIRECTIONAL;
 640              		.loc 1 116 23 is_stmt 0 view .LVU124
 641 0038 2646     		mov	r6, r4
 105:Core/Src/voltage.c **** 
 642              		.loc 1 105 35 view .LVU125
 643 003a 0027     		movs	r7, #0
 644              		.loc 1 118 13 view .LVU126
 645 003c 21E0     		b	.L49
 646              	.LVL52:
 647              	.L51:
 119:Core/Src/voltage.c ****         case Ti:
 120:Core/Src/voltage.c ****             GPIOSW->BSRR = SW_R1_Ti2_Pin | SW_Ti1_GND_Pin;
 648              		.loc 1 120 13 is_stmt 1 view .LVU127
 649              		.loc 1 120 26 is_stmt 0 view .LVU128
 650 003e DFF8C490 		ldr	r9, .L62
 651 0042 4FF49063 		mov	r3, #1152
 652              	.LVL53:
 653              		.loc 1 120 26 view .LVU129
 654 0046 C9F81830 		str	r3, [r9, #24]
 121:Core/Src/voltage.c ****             us_delay(voltage_settle_time);
 655              		.loc 1 121 13 is_stmt 1 view .LVU130
 656 004a 4046     		mov	r0, r8
 657              	.LVL54:
 658              		.loc 1 121 13 is_stmt 0 view .LVU131
 659 004c FFF7FEFF 		bl	us_delay
 660              	.LVL55:
 122:Core/Src/voltage.c ****             adc_reverse_val = adc_average(adc_samples);
 661              		.loc 1 122 13 is_stmt 1 view .LVU132
 662              		.loc 1 122 31 is_stmt 0 view .LVU133
 663 0050 2846     		mov	r0, r5
 664 0052 FFF7FEFF 		bl	adc_average
 665              	.LVL56:
 666 0056 0746     		mov	r7, r0
ARM GAS  /var/folders/rj/9n9dpytj2n74_jwlj_p0xk9m0000gn/T//ccaWyzcK.s 			page 15


 667              	.LVL57:
 123:Core/Src/voltage.c ****             GPIOSW->BSRR = (SW_Ti_Pin_Msk) << 16;
 668              		.loc 1 123 13 is_stmt 1 view .LVU134
 669              		.loc 1 123 26 is_stmt 0 view .LVU135
 670 0058 4FF04C63 		mov	r3, #213909504
 671 005c C9F81830 		str	r3, [r9, #24]
 124:Core/Src/voltage.c ****             break;
 672              		.loc 1 124 13 is_stmt 1 view .LVU136
 673 0060 0FE0     		b	.L49
 674              	.LVL58:
 675              	.L52:
 125:Core/Src/voltage.c ****         case Au_Shielded:
 126:Core/Src/voltage.c ****             GPIOSW->BSRR = SW_R1_Au2_Pin | SW_Shield2_V_Pin | SW_Shield1_GND_Pin;
 676              		.loc 1 126 13 view .LVU137
 677              		.loc 1 126 26 is_stmt 0 view .LVU138
 678 0062 284E     		ldr	r6, .L62
 679 0064 46F22003 		movw	r3, #24608
 680              	.LVL59:
 681              		.loc 1 126 26 view .LVU139
 682 0068 B361     		str	r3, [r6, #24]
 127:Core/Src/voltage.c ****             us_delay(voltage_settle_time);
 683              		.loc 1 127 13 is_stmt 1 view .LVU140
 684 006a 4046     		mov	r0, r8
 685              	.LVL60:
 686              		.loc 1 127 13 is_stmt 0 view .LVU141
 687 006c FFF7FEFF 		bl	us_delay
 688              	.LVL61:
 128:Core/Src/voltage.c ****             adc_average(adc_samples);
 689              		.loc 1 128 13 is_stmt 1 view .LVU142
 690 0070 2846     		mov	r0, r5
 691 0072 FFF7FEFF 		bl	adc_average
 692              	.LVL62:
 129:Core/Src/voltage.c ****             direction = UNIDIRECTIONAL;
 693              		.loc 1 129 13 view .LVU143
 130:Core/Src/voltage.c ****             GPIOSW->BSRR = (SW_Au_Pin_Msk | SW_Shield_Pin_Msk) << 16;
 694              		.loc 1 130 13 view .LVU144
 695              		.loc 1 130 26 is_stmt 0 view .LVU145
 696 0076 244B     		ldr	r3, .L62+4
 697 0078 B361     		str	r3, [r6, #24]
 131:Core/Src/voltage.c ****             break;
 698              		.loc 1 131 13 is_stmt 1 view .LVU146
 105:Core/Src/voltage.c **** 
 699              		.loc 1 105 35 is_stmt 0 view .LVU147
 700 007a 0027     		movs	r7, #0
 129:Core/Src/voltage.c ****             GPIOSW->BSRR = (SW_Au_Pin_Msk | SW_Shield_Pin_Msk) << 16;
 701              		.loc 1 129 23 view .LVU148
 702 007c 3E46     		mov	r6, r7
 703              		.loc 1 131 13 view .LVU149
 704 007e 00E0     		b	.L49
 705              	.LVL63:
 706              	.L56:
 107:Core/Src/voltage.c ****     {
 707              		.loc 1 107 5 view .LVU150
 708 0080 0027     		movs	r7, #0
 709              	.LVL64:
 710              	.L49:
 132:Core/Src/voltage.c ****         default:
ARM GAS  /var/folders/rj/9n9dpytj2n74_jwlj_p0xk9m0000gn/T//ccaWyzcK.s 			page 16


 133:Core/Src/voltage.c ****             break;
 134:Core/Src/voltage.c ****         }
 135:Core/Src/voltage.c ****     case UNIDIRECTIONAL:
 136:Core/Src/voltage.c ****         switch (electrode)
 711              		.loc 1 136 9 is_stmt 1 view .LVU151
 712 0082 012C     		cmp	r4, #1
 713 0084 14D0     		beq	.L53
 714 0086 022C     		cmp	r4, #2
 715 0088 20D0     		beq	.L54
 716 008a 94BB     		cbnz	r4, .L59
 137:Core/Src/voltage.c ****         {
 138:Core/Src/voltage.c ****         case Au:
 139:Core/Src/voltage.c ****             GPIOSW->BSRR = SW_R1_Au1_Pin | SW_Shield2_GND_Pin;
 717              		.loc 1 139 13 view .LVU152
 718              		.loc 1 139 26 is_stmt 0 view .LVU153
 719 008c 04F18044 		add	r4, r4, #1073741824
 720              	.LVL65:
 721              		.loc 1 139 26 view .LVU154
 722 0090 04F50234 		add	r4, r4, #133120
 723              	.LVL66:
 724              		.loc 1 139 26 view .LVU155
 725 0094 48F21003 		movw	r3, #32784
 726 0098 A361     		str	r3, [r4, #24]
 140:Core/Src/voltage.c ****             us_delay(voltage_settle_time);
 727              		.loc 1 140 13 is_stmt 1 view .LVU156
 728 009a 4046     		mov	r0, r8
 729 009c FFF7FEFF 		bl	us_delay
 730              	.LVL67:
 141:Core/Src/voltage.c ****             adc_forward_val = adc_average(adc_samples);
 731              		.loc 1 141 13 view .LVU157
 732              		.loc 1 141 31 is_stmt 0 view .LVU158
 733 00a0 2846     		mov	r0, r5
 734 00a2 FFF7FEFF 		bl	adc_average
 735              	.LVL68:
 142:Core/Src/voltage.c ****             GPIOSW->BSRR = (SW_Au_Pin_Msk | SW_Shield_Pin_Msk) << 16;
 736              		.loc 1 142 13 is_stmt 1 view .LVU159
 737              		.loc 1 142 26 is_stmt 0 view .LVU160
 738 00a6 184B     		ldr	r3, .L62+4
 739 00a8 A361     		str	r3, [r4, #24]
 143:Core/Src/voltage.c ****             break;
 740              		.loc 1 143 13 is_stmt 1 view .LVU161
 741 00aa 1EE0     		b	.L50
 742              	.LVL69:
 743              	.L58:
 744              		.loc 1 143 13 is_stmt 0 view .LVU162
 745 00ac 0027     		movs	r7, #0
 746 00ae E8E7     		b	.L49
 747              	.LVL70:
 748              	.L53:
 144:Core/Src/voltage.c ****         case Ti:
 145:Core/Src/voltage.c ****             GPIOSW->BSRR = SW_R1_Ti1_Pin | SW_Ti2_GND_Pin;
 749              		.loc 1 145 13 is_stmt 1 view .LVU163
 750              		.loc 1 145 26 is_stmt 0 view .LVU164
 751 00b0 144C     		ldr	r4, .L62
 752              	.LVL71:
 753              		.loc 1 145 26 view .LVU165
 754 00b2 4FF40463 		mov	r3, #2112
ARM GAS  /var/folders/rj/9n9dpytj2n74_jwlj_p0xk9m0000gn/T//ccaWyzcK.s 			page 17


 755 00b6 A361     		str	r3, [r4, #24]
 146:Core/Src/voltage.c ****             us_delay(voltage_settle_time);
 756              		.loc 1 146 13 is_stmt 1 view .LVU166
 757 00b8 4046     		mov	r0, r8
 758 00ba FFF7FEFF 		bl	us_delay
 759              	.LVL72:
 147:Core/Src/voltage.c ****             adc_forward_val = adc_average(adc_samples);
 760              		.loc 1 147 13 view .LVU167
 761              		.loc 1 147 31 is_stmt 0 view .LVU168
 762 00be 2846     		mov	r0, r5
 763 00c0 FFF7FEFF 		bl	adc_average
 764              	.LVL73:
 148:Core/Src/voltage.c ****             GPIOSW->BSRR = (SW_Ti_Pin_Msk) << 16;
 765              		.loc 1 148 13 is_stmt 1 view .LVU169
 766              		.loc 1 148 26 is_stmt 0 view .LVU170
 767 00c4 4FF04C63 		mov	r3, #213909504
 768 00c8 A361     		str	r3, [r4, #24]
 149:Core/Src/voltage.c ****             break;
 769              		.loc 1 149 13 is_stmt 1 view .LVU171
 770 00ca 0EE0     		b	.L50
 771              	.LVL74:
 772              	.L54:
 150:Core/Src/voltage.c ****         case Au_Shielded:
 151:Core/Src/voltage.c ****             GPIOSW->BSRR = SW_R1_Au1_Pin | SW_Shield1_V_Pin | SW_Shield2_GND_Pin;
 773              		.loc 1 151 13 view .LVU172
 774              		.loc 1 151 26 is_stmt 0 view .LVU173
 775 00cc 0D4C     		ldr	r4, .L62
 776 00ce 49F21003 		movw	r3, #36880
 777 00d2 A361     		str	r3, [r4, #24]
 152:Core/Src/voltage.c ****             us_delay(voltage_settle_time);
 778              		.loc 1 152 13 is_stmt 1 view .LVU174
 779 00d4 4046     		mov	r0, r8
 780 00d6 FFF7FEFF 		bl	us_delay
 781              	.LVL75:
 153:Core/Src/voltage.c ****             adc_forward_val = adc_average(adc_samples);
 782              		.loc 1 153 13 view .LVU175
 783              		.loc 1 153 31 is_stmt 0 view .LVU176
 784 00da 2846     		mov	r0, r5
 785 00dc FFF7FEFF 		bl	adc_average
 786              	.LVL76:
 154:Core/Src/voltage.c ****             GPIOSW->BSRR = (SW_Au_Pin_Msk | SW_Shield_Pin_Msk) << 16;
 787              		.loc 1 154 13 is_stmt 1 view .LVU177
 788              		.loc 1 154 26 is_stmt 0 view .LVU178
 789 00e0 094B     		ldr	r3, .L62+4
 790 00e2 A361     		str	r3, [r4, #24]
 155:Core/Src/voltage.c ****             break;
 791              		.loc 1 155 13 is_stmt 1 view .LVU179
 792 00e4 01E0     		b	.L50
 793              	.LVL77:
 794              	.L57:
 107:Core/Src/voltage.c ****     {
 795              		.loc 1 107 5 is_stmt 0 view .LVU180
 796 00e6 0027     		movs	r7, #0
 797 00e8 3846     		mov	r0, r7
 798              	.LVL78:
 799              	.L50:
 156:Core/Src/voltage.c ****         default:
ARM GAS  /var/folders/rj/9n9dpytj2n74_jwlj_p0xk9m0000gn/T//ccaWyzcK.s 			page 18


 157:Core/Src/voltage.c ****             break;
 158:Core/Src/voltage.c ****         }
 159:Core/Src/voltage.c ****     default:
 160:Core/Src/voltage.c ****         break;
 800              		.loc 1 160 9 is_stmt 1 view .LVU181
 161:Core/Src/voltage.c ****     }
 162:Core/Src/voltage.c **** 
 163:Core/Src/voltage.c ****     if (direction == BIDIRECTIONAL)
 801              		.loc 1 163 5 view .LVU182
 802              		.loc 1 163 8 is_stmt 0 view .LVU183
 803 00ea 012E     		cmp	r6, #1
 804 00ec 03D0     		beq	.L61
 805              	.LVL79:
 806              	.L55:
 164:Core/Src/voltage.c ****     {
 165:Core/Src/voltage.c ****         return (adc_forward_val + adc_reverse_val) / 2;
 166:Core/Src/voltage.c ****     }
 167:Core/Src/voltage.c ****     return adc_forward_val;
 168:Core/Src/voltage.c **** }
 807              		.loc 1 168 1 view .LVU184
 808 00ee BDE8F883 		pop	{r3, r4, r5, r6, r7, r8, r9, pc}
 809              	.LVL80:
 810              	.L59:
 811              		.loc 1 168 1 view .LVU185
 812 00f2 0020     		movs	r0, #0
 813 00f4 F9E7     		b	.L50
 814              	.LVL81:
 815              	.L61:
 165:Core/Src/voltage.c ****     }
 816              		.loc 1 165 9 is_stmt 1 view .LVU186
 165:Core/Src/voltage.c ****     }
 817              		.loc 1 165 33 is_stmt 0 view .LVU187
 818 00f6 3844     		add	r0, r0, r7
 819              	.LVL82:
 165:Core/Src/voltage.c ****     }
 820              		.loc 1 165 52 view .LVU188
 821 00f8 00EBD070 		add	r0, r0, r0, lsr #31
 822 00fc C0F34F00 		ubfx	r0, r0, #1, #16
 823 0100 F5E7     		b	.L55
 824              	.L63:
 825 0102 00BF     		.align	2
 826              	.L62:
 827 0104 00080240 		.word	1073874944
 828 0108 000030F3 		.word	-214958080
 829              		.cfi_endproc
 830              	.LFE231:
 832              		.global	__aeabi_i2d
 833              		.global	__aeabi_ddiv
 834              		.global	__aeabi_ui2d
 835              		.global	__aeabi_d2uiz
 836              		.global	__aeabi_d2iz
 837              		.global	__aeabi_dadd
 838              		.section	.text.measure_voltage_sweep,"ax",%progbits
 839              		.align	1
 840              		.global	measure_voltage_sweep
 841              		.syntax unified
 842              		.thumb
ARM GAS  /var/folders/rj/9n9dpytj2n74_jwlj_p0xk9m0000gn/T//ccaWyzcK.s 			page 19


 843              		.thumb_func
 845              	measure_voltage_sweep:
 846              	.LVL83:
 847              	.LFB232:
 169:Core/Src/voltage.c **** 
 170:Core/Src/voltage.c **** void measure_voltage_sweep(VoltageSample_TypeDef *samples, Direction direction, R1_Type r1, Electro
 171:Core/Src/voltage.c **** {
 848              		.loc 1 171 1 is_stmt 1 view -0
 849              		.cfi_startproc
 850              		@ args = 24, pretend = 0, frame = 24
 851              		@ frame_needed = 0, uses_anonymous_args = 0
 852              		.loc 1 171 1 is_stmt 0 view .LVU190
 853 0000 2DE9F04F 		push	{r4, r5, r6, r7, r8, r9, r10, fp, lr}
 854              		.cfi_def_cfa_offset 36
 855              		.cfi_offset 4, -36
 856              		.cfi_offset 5, -32
 857              		.cfi_offset 6, -28
 858              		.cfi_offset 7, -24
 859              		.cfi_offset 8, -20
 860              		.cfi_offset 9, -16
 861              		.cfi_offset 10, -12
 862              		.cfi_offset 11, -8
 863              		.cfi_offset 14, -4
 864 0004 87B0     		sub	sp, sp, #28
 865              		.cfi_def_cfa_offset 64
 866 0006 0646     		mov	r6, r0
 867 0008 0591     		str	r1, [sp, #20]
 868 000a 9146     		mov	r9, r2
 869 000c 9B46     		mov	fp, r3
 870 000e BDF840A0 		ldrh	r10, [sp, #64]
 871 0012 BDF84870 		ldrh	r7, [sp, #72]
 872 0016 BDF84C40 		ldrh	r4, [sp, #76]
 873 001a BDF85050 		ldrh	r5, [sp, #80]
 874 001e BDF85480 		ldrh	r8, [sp, #84]
 172:Core/Src/voltage.c ****     double dac_step = (double)(dac_stop - dac_start) / num_samples;
 875              		.loc 1 172 5 is_stmt 1 view .LVU191
 876              		.loc 1 172 23 is_stmt 0 view .LVU192
 877 0022 BDF84400 		ldrh	r0, [sp, #68]
 878              	.LVL84:
 879              		.loc 1 172 23 view .LVU193
 880 0026 A0EB0A00 		sub	r0, r0, r10
 881 002a FFF7FEFF 		bl	__aeabi_i2d
 882              	.LVL85:
 883              		.loc 1 172 23 view .LVU194
 884 002e CDE90001 		strd	r0, [sp]
 885              		.loc 1 172 54 view .LVU195
 886 0032 3846     		mov	r0, r7
 887 0034 FFF7FEFF 		bl	__aeabi_i2d
 888              	.LVL86:
 889 0038 0246     		mov	r2, r0
 890 003a 0B46     		mov	r3, r1
 891              		.loc 1 172 12 view .LVU196
 892 003c DDE90001 		ldrd	r0, [sp]
 893 0040 FFF7FEFF 		bl	__aeabi_ddiv
 894              	.LVL87:
 895 0044 CDE90201 		strd	r0, [sp, #8]
 896              	.LVL88:
ARM GAS  /var/folders/rj/9n9dpytj2n74_jwlj_p0xk9m0000gn/T//ccaWyzcK.s 			page 20


 173:Core/Src/voltage.c ****     double dac_voltage = dac_start;
 897              		.loc 1 173 5 is_stmt 1 view .LVU197
 898              		.loc 1 173 12 is_stmt 0 view .LVU198
 899 0048 5046     		mov	r0, r10
 900              	.LVL89:
 901              		.loc 1 173 12 view .LVU199
 902 004a FFF7FEFF 		bl	__aeabi_ui2d
 903              	.LVL90:
 904 004e CDE90001 		strd	r0, [sp]
 905              	.LVL91:
 174:Core/Src/voltage.c ****     reset_muxs();
 906              		.loc 1 174 5 is_stmt 1 view .LVU200
 907 0052 FFF7FEFF 		bl	reset_muxs
 908              	.LVL92:
 175:Core/Src/voltage.c ****     dac_drain();
 909              		.loc 1 175 5 view .LVU201
 910 0056 FFF7FEFF 		bl	dac_drain
 911              	.LVL93:
 176:Core/Src/voltage.c **** 
 177:Core/Src/voltage.c ****     switch (r1)
 912              		.loc 1 177 5 view .LVU202
 913 005a B9F1010F 		cmp	r9, #1
 914 005e 0BD0     		beq	.L65
 915 0060 B9F1020F 		cmp	r9, #2
 916 0064 0CD0     		beq	.L66
 917 0066 B9F1000F 		cmp	r9, #0
 918 006a 02D1     		bne	.L67
 178:Core/Src/voltage.c ****     {
 179:Core/Src/voltage.c ****     case R1_100:
 180:Core/Src/voltage.c ****         GPIOSW->BSRR = SW_R1_100_Pin;
 919              		.loc 1 180 9 view .LVU203
 920              		.loc 1 180 22 is_stmt 0 view .LVU204
 921 006c 274B     		ldr	r3, .L71
 922 006e 0122     		movs	r2, #1
 923 0070 9A61     		str	r2, [r3, #24]
 924              	.LVL94:
 181:Core/Src/voltage.c ****         break;
 925              		.loc 1 181 9 is_stmt 1 view .LVU205
 926              	.L67:
 171:Core/Src/voltage.c ****     double dac_step = (double)(dac_stop - dac_start) / num_samples;
 927              		.loc 1 171 1 is_stmt 0 view .LVU206
 928 0072 4FF00009 		mov	r9, #0
 929              	.LVL95:
 171:Core/Src/voltage.c ****     double dac_step = (double)(dac_stop - dac_start) / num_samples;
 930              		.loc 1 171 1 view .LVU207
 931 0076 3FE0     		b	.L68
 932              	.LVL96:
 933              	.L65:
 182:Core/Src/voltage.c ****     case R1_1k:
 183:Core/Src/voltage.c ****         GPIOSW->BSRR = SW_R1_1k_Pin;
 934              		.loc 1 183 9 is_stmt 1 view .LVU208
 935              		.loc 1 183 22 is_stmt 0 view .LVU209
 936 0078 244B     		ldr	r3, .L71
 937 007a 0222     		movs	r2, #2
 938 007c 9A61     		str	r2, [r3, #24]
 939              	.LVL97:
 184:Core/Src/voltage.c ****         break;
ARM GAS  /var/folders/rj/9n9dpytj2n74_jwlj_p0xk9m0000gn/T//ccaWyzcK.s 			page 21


 940              		.loc 1 184 9 is_stmt 1 view .LVU210
 941 007e F8E7     		b	.L67
 942              	.LVL98:
 943              	.L66:
 185:Core/Src/voltage.c ****     case R1_10k:
 186:Core/Src/voltage.c ****         GPIOSW->BSRR = SW_R1_10k_Pin;
 944              		.loc 1 186 9 view .LVU211
 945              		.loc 1 186 22 is_stmt 0 view .LVU212
 946 0080 224B     		ldr	r3, .L71
 947 0082 0422     		movs	r2, #4
 948 0084 9A61     		str	r2, [r3, #24]
 949              	.LVL99:
 187:Core/Src/voltage.c ****         break;
 950              		.loc 1 187 9 is_stmt 1 view .LVU213
 951 0086 F4E7     		b	.L67
 952              	.LVL100:
 953              	.L69:
 954              	.LBB4:
 188:Core/Src/voltage.c ****     default:
 189:Core/Src/voltage.c ****         break;
 190:Core/Src/voltage.c ****     }
 191:Core/Src/voltage.c **** 
 192:Core/Src/voltage.c ****     // dac_set_voltage(dac_voltage);
 193:Core/Src/voltage.c ****     // for (uint8_t i = 0; i < 50; i++)
 194:Core/Src/voltage.c ****     // {
 195:Core/Src/voltage.c ****     //     measure_pin_voltage(direction, electrode, adc_samples, voltage_settle_time);
 196:Core/Src/voltage.c ****     // }
 197:Core/Src/voltage.c ****     for (uint16_t i = 0; i < num_samples; i++)
 198:Core/Src/voltage.c ****     {
 199:Core/Src/voltage.c ****         // dac_drain();
 200:Core/Src/voltage.c ****         dac_set_voltage((uint16_t)dac_voltage);
 955              		.loc 1 200 9 view .LVU214
 956 0088 DDE90001 		ldrd	r0, [sp]
 957 008c FFF7FEFF 		bl	__aeabi_d2uiz
 958              	.LVL101:
 959 0090 80B2     		uxth	r0, r0
 960 0092 FFF7FEFF 		bl	dac_set_voltage
 961              	.LVL102:
 201:Core/Src/voltage.c ****         HAL_Delay(relaxation_time);
 962              		.loc 1 201 9 view .LVU215
 963 0096 4046     		mov	r0, r8
 964 0098 FFF7FEFF 		bl	HAL_Delay
 965              	.LVL103:
 202:Core/Src/voltage.c **** 
 203:Core/Src/voltage.c ****         samples[i].dac_input = dac_voltage;
 966              		.loc 1 203 9 view .LVU216
 967              		.loc 1 203 16 is_stmt 0 view .LVU217
 968 009c 06EBC90A 		add	r10, r6, r9, lsl #3
 969              		.loc 1 203 30 view .LVU218
 970 00a0 DDE90001 		ldrd	r0, [sp]
 971 00a4 FFF7FEFF 		bl	__aeabi_d2iz
 972              	.LVL104:
 973 00a8 26F83900 		strh	r0, [r6, r9, lsl #3]	@ movhi
 204:Core/Src/voltage.c **** 
 205:Core/Src/voltage.c ****         adc_set_channel(ADC_CHANNEL_DAC);
 974              		.loc 1 205 9 is_stmt 1 view .LVU219
 975 00ac 0120     		movs	r0, #1
ARM GAS  /var/folders/rj/9n9dpytj2n74_jwlj_p0xk9m0000gn/T//ccaWyzcK.s 			page 22


 976 00ae FFF7FEFF 		bl	adc_set_channel
 977              	.LVL105:
 206:Core/Src/voltage.c ****         samples[i].dac_output = measure_dac_voltage(adc_samples, voltage_settle_time);
 978              		.loc 1 206 9 view .LVU220
 979              		.loc 1 206 33 is_stmt 0 view .LVU221
 980 00b2 2946     		mov	r1, r5
 981 00b4 2046     		mov	r0, r4
 982 00b6 FFF7FEFF 		bl	measure_dac_voltage
 983              	.LVL106:
 984              		.loc 1 206 31 discriminator 1 view .LVU222
 985 00ba AAF80200 		strh	r0, [r10, #2]	@ movhi
 207:Core/Src/voltage.c **** 
 208:Core/Src/voltage.c ****         adc_set_channel(ADC_CHANNEL_SIGNAL);
 986              		.loc 1 208 9 is_stmt 1 view .LVU223
 987 00be 0320     		movs	r0, #3
 988 00c0 FFF7FEFF 		bl	adc_set_channel
 989              	.LVL107:
 209:Core/Src/voltage.c ****         samples[i].calib = measure_calib_voltage(adc_samples, voltage_settle_time);
 990              		.loc 1 209 9 view .LVU224
 991              		.loc 1 209 28 is_stmt 0 view .LVU225
 992 00c4 2946     		mov	r1, r5
 993 00c6 2046     		mov	r0, r4
 994 00c8 FFF7FEFF 		bl	measure_calib_voltage
 995              	.LVL108:
 996              		.loc 1 209 26 discriminator 1 view .LVU226
 997 00cc AAF80400 		strh	r0, [r10, #4]	@ movhi
 210:Core/Src/voltage.c **** 
 211:Core/Src/voltage.c ****         samples[i].measurement = measure_pin_voltage(direction, electrode, adc_samples, voltage_set
 998              		.loc 1 211 9 is_stmt 1 view .LVU227
 999              		.loc 1 211 34 is_stmt 0 view .LVU228
 1000 00d0 2B46     		mov	r3, r5
 1001 00d2 2246     		mov	r2, r4
 1002 00d4 5946     		mov	r1, fp
 1003 00d6 0598     		ldr	r0, [sp, #20]
 1004 00d8 FFF7FEFF 		bl	measure_pin_voltage
 1005              	.LVL109:
 1006              		.loc 1 211 32 discriminator 1 view .LVU229
 1007 00dc AAF80600 		strh	r0, [r10, #6]	@ movhi
 212:Core/Src/voltage.c **** 
 213:Core/Src/voltage.c ****         dac_voltage += dac_step;
 1008              		.loc 1 213 9 is_stmt 1 view .LVU230
 1009              		.loc 1 213 21 is_stmt 0 view .LVU231
 1010 00e0 DDE90223 		ldrd	r2, [sp, #8]
 1011 00e4 DDE90001 		ldrd	r0, [sp]
 1012 00e8 FFF7FEFF 		bl	__aeabi_dadd
 1013              	.LVL110:
 1014 00ec CDE90001 		strd	r0, [sp]
 1015              	.LVL111:
 197:Core/Src/voltage.c ****     {
 1016              		.loc 1 197 44 is_stmt 1 discriminator 3 view .LVU232
 1017 00f0 09F10109 		add	r9, r9, #1
 1018              	.LVL112:
 197:Core/Src/voltage.c ****     {
 1019              		.loc 1 197 44 is_stmt 0 discriminator 3 view .LVU233
 1020 00f4 1FFA89F9 		uxth	r9, r9
 1021              	.LVL113:
 1022              	.L68:
ARM GAS  /var/folders/rj/9n9dpytj2n74_jwlj_p0xk9m0000gn/T//ccaWyzcK.s 			page 23


 197:Core/Src/voltage.c ****     {
 1023              		.loc 1 197 28 is_stmt 1 discriminator 1 view .LVU234
 1024 00f8 B945     		cmp	r9, r7
 1025 00fa C5D3     		bcc	.L69
 1026              	.LBE4:
 214:Core/Src/voltage.c ****     }
 215:Core/Src/voltage.c **** 
 216:Core/Src/voltage.c ****     reset_muxs();
 1027              		.loc 1 216 5 view .LVU235
 1028 00fc FFF7FEFF 		bl	reset_muxs
 1029              	.LVL114:
 217:Core/Src/voltage.c ****     dac_drain();
 1030              		.loc 1 217 5 view .LVU236
 1031 0100 FFF7FEFF 		bl	dac_drain
 1032              	.LVL115:
 218:Core/Src/voltage.c **** }
 1033              		.loc 1 218 1 is_stmt 0 view .LVU237
 1034 0104 07B0     		add	sp, sp, #28
 1035              		.cfi_def_cfa_offset 36
 1036              	.LVL116:
 1037              		.loc 1 218 1 view .LVU238
 1038              		@ sp needed
 1039 0106 BDE8F08F 		pop	{r4, r5, r6, r7, r8, r9, r10, fp, pc}
 1040              	.LVL117:
 1041              	.L72:
 1042              		.loc 1 218 1 view .LVU239
 1043 010a 00BF     		.align	2
 1044              	.L71:
 1045 010c 00080240 		.word	1073874944
 1046              		.cfi_endproc
 1047              	.LFE232:
 1049              		.global	__aeabi_dmul
 1050              		.global	__aeabi_dsub
 1051              		.section	.text.measure_ac_sweep,"ax",%progbits
 1052              		.align	1
 1053              		.global	measure_ac_sweep
 1054              		.syntax unified
 1055              		.thumb
 1056              		.thumb_func
 1058              	measure_ac_sweep:
 1059              	.LVL118:
 1060              	.LFB233:
 219:Core/Src/voltage.c **** 
 220:Core/Src/voltage.c **** void measure_ac_sweep(VoltageSample_TypeDef *samples, R1_Type r1, Electrode_Type electrode, uint8_t
 221:Core/Src/voltage.c **** {
 1061              		.loc 1 221 1 is_stmt 1 view -0
 1062              		.cfi_startproc
 1063              		@ args = 8, pretend = 0, frame = 24
 1064              		@ frame_needed = 1, uses_anonymous_args = 0
 1065              		.loc 1 221 1 is_stmt 0 view .LVU241
 1066 0000 2DE9F04F 		push	{r4, r5, r6, r7, r8, r9, r10, fp, lr}
 1067              		.cfi_def_cfa_offset 36
 1068              		.cfi_offset 4, -36
 1069              		.cfi_offset 5, -32
 1070              		.cfi_offset 6, -28
 1071              		.cfi_offset 7, -24
 1072              		.cfi_offset 8, -20
ARM GAS  /var/folders/rj/9n9dpytj2n74_jwlj_p0xk9m0000gn/T//ccaWyzcK.s 			page 24


 1073              		.cfi_offset 9, -16
 1074              		.cfi_offset 10, -12
 1075              		.cfi_offset 11, -8
 1076              		.cfi_offset 14, -4
 1077 0004 87B0     		sub	sp, sp, #28
 1078              		.cfi_def_cfa_offset 64
 1079 0006 00AF     		add	r7, sp, #0
 1080              		.cfi_def_cfa_register 7
 1081 0008 0C46     		mov	r4, r1
 1082 000a 9246     		mov	r10, r2
 1083 000c 1946     		mov	r1, r3
 1084              	.LVL119:
 1085              		.loc 1 221 1 view .LVU242
 1086 000e 7B60     		str	r3, [r7, #4]
 1087 0010 B7F84420 		ldrh	r2, [r7, #68]
 1088              	.LVL120:
 1089              		.loc 1 221 1 view .LVU243
 1090 0014 3A61     		str	r2, [r7, #16]
 222:Core/Src/voltage.c ****     uint16_t half_wave_samples = num_samples / num_waves / 2;
 1091              		.loc 1 222 5 is_stmt 1 view .LVU244
 1092              		.loc 1 222 58 is_stmt 0 view .LVU245
 1093 0016 B7F84030 		ldrh	r3, [r7, #64]
 1094              	.LVL121:
 1095              		.loc 1 222 58 view .LVU246
 1096 001a 93FBF1F3 		sdiv	r3, r3, r1
 1097              		.loc 1 222 14 view .LVU247
 1098 001e 4FEA530B 		lsr	fp, r3, #1
 1099              	.LVL122:
 223:Core/Src/voltage.c ****     uint16_t dac_values[half_wave_samples];
 1100              		.loc 1 223 5 is_stmt 1 view .LVU248
 1101              		.loc 1 223 14 is_stmt 0 view .LVU249
 1102 0022 4FEA4B03 		lsl	r3, fp, #1
 1103 0026 0733     		adds	r3, r3, #7
 1104 0028 DB08     		lsrs	r3, r3, #3
 1105 002a 6A46     		mov	r2, sp
 1106 002c A2EBC303 		sub	r3, r2, r3, lsl #3
 1107 0030 9D46     		mov	sp, r3
 1108 0032 6E46     		mov	r6, sp
 1109              	.LVL123:
 224:Core/Src/voltage.c ****     // generate half sin wave ampltitude 0 to 1023 to 0
 225:Core/Src/voltage.c ****     for (uint16_t i = 0; i < half_wave_samples; i++)
 1110              		.loc 1 225 5 is_stmt 1 view .LVU250
 1111              	.LBB5:
 1112              		.loc 1 225 10 view .LVU251
 1113              		.loc 1 225 19 is_stmt 0 view .LVU252
 1114 0034 4FF00009 		mov	r9, #0
 1115 0038 7861     		str	r0, [r7, #20]
 1116 003a A046     		mov	r8, r4
 1117              	.LVL124:
 1118              	.L74:
 1119              		.loc 1 225 28 is_stmt 1 discriminator 1 view .LVU253
 1120 003c D945     		cmp	r9, fp
 1121 003e 29D2     		bcs	.L93
 226:Core/Src/voltage.c ****     {
 227:Core/Src/voltage.c ****         dac_values[i] = (uint16_t)V_MAX * sin(3.14 * i / half_wave_samples) - 1;
 1122              		.loc 1 227 9 view .LVU254
 1123              		.loc 1 227 52 is_stmt 0 view .LVU255
ARM GAS  /var/folders/rj/9n9dpytj2n74_jwlj_p0xk9m0000gn/T//ccaWyzcK.s 			page 25


 1124 0040 4846     		mov	r0, r9
 1125 0042 FFF7FEFF 		bl	__aeabi_i2d
 1126              	.LVL125:
 1127 0046 6AA3     		adr	r3, .L95+16
 1128 0048 D3E90023 		ldrd	r2, [r3]
 1129 004c FFF7FEFF 		bl	__aeabi_dmul
 1130              	.LVL126:
 1131 0050 0446     		mov	r4, r0
 1132 0052 0D46     		mov	r5, r1
 1133              		.loc 1 227 43 view .LVU256
 1134 0054 5846     		mov	r0, fp
 1135 0056 FFF7FEFF 		bl	__aeabi_i2d
 1136              	.LVL127:
 1137 005a 0246     		mov	r2, r0
 1138 005c 0B46     		mov	r3, r1
 1139 005e 2046     		mov	r0, r4
 1140 0060 2946     		mov	r1, r5
 1141 0062 FFF7FEFF 		bl	__aeabi_ddiv
 1142              	.LVL128:
 1143 0066 41EC100B 		vmov	d0, r0, r1
 1144 006a FFF7FEFF 		bl	sin
 1145              	.LVL129:
 1146 006e 51EC100B 		vmov	r0, r1, d0
 1147              		.loc 1 227 41 discriminator 1 view .LVU257
 1148 0072 0022     		movs	r2, #0
 1149 0074 5A4B     		ldr	r3, .L95
 1150 0076 FFF7FEFF 		bl	__aeabi_dmul
 1151              	.LVL130:
 1152              		.loc 1 227 77 discriminator 1 view .LVU258
 1153 007a 0022     		movs	r2, #0
 1154 007c 594B     		ldr	r3, .L95+4
 1155 007e FFF7FEFF 		bl	__aeabi_dsub
 1156              	.LVL131:
 1157              		.loc 1 227 23 discriminator 1 view .LVU259
 1158 0082 FFF7FEFF 		bl	__aeabi_d2uiz
 1159              	.LVL132:
 1160 0086 26F81900 		strh	r0, [r6, r9, lsl #1]	@ movhi
 225:Core/Src/voltage.c ****     {
 1161              		.loc 1 225 50 is_stmt 1 discriminator 3 view .LVU260
 1162 008a 09F10109 		add	r9, r9, #1
 1163              	.LVL133:
 225:Core/Src/voltage.c ****     {
 1164              		.loc 1 225 50 is_stmt 0 discriminator 3 view .LVU261
 1165 008e 1FFA89F9 		uxth	r9, r9
 1166              	.LVL134:
 225:Core/Src/voltage.c ****     {
 1167              		.loc 1 225 50 discriminator 3 view .LVU262
 1168 0092 D3E7     		b	.L74
 1169              	.L93:
 225:Core/Src/voltage.c ****     {
 1170              		.loc 1 225 50 discriminator 3 view .LVU263
 1171              	.LBE5:
 228:Core/Src/voltage.c ****     }
 229:Core/Src/voltage.c **** 
 230:Core/Src/voltage.c ****     reset_muxs();
 1172              		.loc 1 230 5 view .LVU264
 1173 0094 4446     		mov	r4, r8
ARM GAS  /var/folders/rj/9n9dpytj2n74_jwlj_p0xk9m0000gn/T//ccaWyzcK.s 			page 26


 1174 0096 D7F81480 		ldr	r8, [r7, #20]
 1175              	.LVL135:
 1176              		.loc 1 230 5 is_stmt 1 view .LVU265
 1177 009a FFF7FEFF 		bl	reset_muxs
 1178              	.LVL136:
 231:Core/Src/voltage.c ****     dac_drain();
 1179              		.loc 1 231 5 view .LVU266
 1180 009e FFF7FEFF 		bl	dac_drain
 1181              	.LVL137:
 232:Core/Src/voltage.c **** 
 233:Core/Src/voltage.c ****     uint16_t r1_pin = 0;
 1182              		.loc 1 233 5 view .LVU267
 234:Core/Src/voltage.c ****     switch (r1)
 1183              		.loc 1 234 5 view .LVU268
 1184 00a2 012C     		cmp	r4, #1
 1185 00a4 12D0     		beq	.L89
 1186              		.loc 1 234 5 is_stmt 0 view .LVU269
 1187 00a6 022C     		cmp	r4, #2
 1188 00a8 13D0     		beq	.L90
 1189 00aa ACB9     		cbnz	r4, .L91
 235:Core/Src/voltage.c ****     {
 236:Core/Src/voltage.c ****     case R1_100:
 237:Core/Src/voltage.c ****         r1_pin = SW_R1_100_Pin;
 1190              		.loc 1 237 16 view .LVU270
 1191 00ac 4FF00109 		mov	r9, #1
 1192              	.LVL138:
 1193              	.L76:
 238:Core/Src/voltage.c ****         break;
 239:Core/Src/voltage.c ****     case R1_1k:
 240:Core/Src/voltage.c ****         r1_pin = SW_R1_1k_Pin;
 241:Core/Src/voltage.c ****         break;
 242:Core/Src/voltage.c ****     case R1_10k:
 243:Core/Src/voltage.c ****         r1_pin = SW_R1_10k_Pin;
 244:Core/Src/voltage.c ****         break;
 245:Core/Src/voltage.c ****     default:
 246:Core/Src/voltage.c ****         break;
 247:Core/Src/voltage.c ****     }
 248:Core/Src/voltage.c **** 
 249:Core/Src/voltage.c ****     adc_set_channel(ADC_CHANNEL_SIGNAL);
 1194              		.loc 1 249 5 is_stmt 1 view .LVU271
 1195 00b0 0320     		movs	r0, #3
 1196 00b2 FFF7FEFF 		bl	adc_set_channel
 1197              	.LVL139:
 250:Core/Src/voltage.c ****     // GPIOSW->BSRR = SW_R1_Calib_Pin;
 251:Core/Src/voltage.c ****     uint16_t sample = 0;
 1198              		.loc 1 251 5 view .LVU272
 252:Core/Src/voltage.c ****     for (uint8_t i = 0; i < num_waves; i++)
 1199              		.loc 1 252 5 view .LVU273
 1200              	.LBB6:
 1201              		.loc 1 252 10 view .LVU274
 1202              		.loc 1 252 18 is_stmt 0 view .LVU275
 1203 00b6 0023     		movs	r3, #0
 1204 00b8 FB60     		str	r3, [r7, #12]
 1205              	.LVL140:
 1206              		.loc 1 252 18 view .LVU276
 1207              	.LBE6:
 251:Core/Src/voltage.c ****     for (uint8_t i = 0; i < num_waves; i++)
ARM GAS  /var/folders/rj/9n9dpytj2n74_jwlj_p0xk9m0000gn/T//ccaWyzcK.s 			page 27


 1208              		.loc 1 251 14 view .LVU277
 1209 00ba 1C46     		mov	r4, r3
 1210              	.LVL141:
 251:Core/Src/voltage.c ****     for (uint8_t i = 0; i < num_waves; i++)
 1211              		.loc 1 251 14 view .LVU278
 1212 00bc C7F814B0 		str	fp, [r7, #20]
 1213              	.LVL142:
 251:Core/Src/voltage.c ****     for (uint8_t i = 0; i < num_waves; i++)
 1214              		.loc 1 251 14 view .LVU279
 1215 00c0 3346     		mov	r3, r6
 1216 00c2 4E46     		mov	r6, r9
 1217              	.LVL143:
 251:Core/Src/voltage.c ****     for (uint8_t i = 0; i < num_waves; i++)
 1218              		.loc 1 251 14 view .LVU280
 1219 00c4 C7F808A0 		str	r10, [r7, #8]
 1220              	.LVL144:
 251:Core/Src/voltage.c ****     for (uint8_t i = 0; i < num_waves; i++)
 1221              		.loc 1 251 14 view .LVU281
 1222 00c8 9946     		mov	r9, r3
 1223              	.LVL145:
 1224              	.LBB9:
 1225              		.loc 1 252 5 view .LVU282
 1226 00ca 74E0     		b	.L77
 1227              	.LVL146:
 1228              	.L89:
 1229              		.loc 1 252 5 view .LVU283
 1230              	.LBE9:
 240:Core/Src/voltage.c ****         break;
 1231              		.loc 1 240 16 view .LVU284
 1232 00cc 4FF00209 		mov	r9, #2
 1233              	.LVL147:
 240:Core/Src/voltage.c ****         break;
 1234              		.loc 1 240 16 view .LVU285
 1235 00d0 EEE7     		b	.L76
 1236              	.LVL148:
 1237              	.L90:
 243:Core/Src/voltage.c ****         break;
 1238              		.loc 1 243 16 view .LVU286
 1239 00d2 4FF00409 		mov	r9, #4
 1240              	.LVL149:
 243:Core/Src/voltage.c ****         break;
 1241              		.loc 1 243 16 view .LVU287
 1242 00d6 EBE7     		b	.L76
 1243              	.LVL150:
 1244              	.L91:
 234:Core/Src/voltage.c ****     {
 1245              		.loc 1 234 5 view .LVU288
 1246 00d8 4FF00009 		mov	r9, #0
 1247              	.LVL151:
 234:Core/Src/voltage.c ****     {
 1248              		.loc 1 234 5 view .LVU289
 1249 00dc E8E7     		b	.L76
 1250              	.LVL152:
 1251              	.L78:
 1252              	.LBB10:
 253:Core/Src/voltage.c ****     {
 254:Core/Src/voltage.c ****         switch (electrode)
ARM GAS  /var/folders/rj/9n9dpytj2n74_jwlj_p0xk9m0000gn/T//ccaWyzcK.s 			page 28


 255:Core/Src/voltage.c ****         {
 256:Core/Src/voltage.c ****         case Ti:
 257:Core/Src/voltage.c ****             GPIOSW->BSRR = SW_Ti_Pin_Msk << 16;
 1253              		.loc 1 257 13 is_stmt 1 view .LVU290
 1254              		.loc 1 257 26 is_stmt 0 view .LVU291
 1255 00de 424B     		ldr	r3, .L95+8
 1256 00e0 4FF04C62 		mov	r2, #213909504
 1257 00e4 9A61     		str	r2, [r3, #24]
 1258              	.LVL153:
 258:Core/Src/voltage.c ****             GPIOSW->BSRR = SW_R1_Ti2_Pin | SW_Ti1_GND_Pin;
 1259              		.loc 1 258 13 is_stmt 1 view .LVU292
 1260              		.loc 1 258 26 is_stmt 0 view .LVU293
 1261 00e6 4FF49062 		mov	r2, #1152
 1262 00ea 9A61     		str	r2, [r3, #24]
 259:Core/Src/voltage.c ****             break;
 1263              		.loc 1 259 13 is_stmt 1 view .LVU294
 1264 00ec 6CE0     		b	.L80
 1265              	.LVL154:
 1266              	.L79:
 260:Core/Src/voltage.c ****         case Au_Shielded:
 261:Core/Src/voltage.c ****             GPIOSW->BSRR = (SW_Au_Pin_Msk | SW_Shield_Pin_Msk) << 16;
 1267              		.loc 1 261 13 view .LVU295
 1268              		.loc 1 261 26 is_stmt 0 view .LVU296
 1269 00ee 3E4B     		ldr	r3, .L95+8
 1270 00f0 3E4A     		ldr	r2, .L95+12
 1271 00f2 9A61     		str	r2, [r3, #24]
 1272              	.LVL155:
 262:Core/Src/voltage.c ****             GPIOSW->BSRR = SW_R1_Au2_Pin | SW_Shield2_V_Pin | SW_Shield1_GND_Pin;
 1273              		.loc 1 262 13 is_stmt 1 view .LVU297
 1274              		.loc 1 262 26 is_stmt 0 view .LVU298
 1275 00f4 46F22002 		movw	r2, #24608
 1276 00f8 9A61     		str	r2, [r3, #24]
 263:Core/Src/voltage.c ****             break;
 1277              		.loc 1 263 13 is_stmt 1 view .LVU299
 1278 00fa 65E0     		b	.L80
 1279              	.LVL156:
 1280              	.L82:
 1281              	.LBB7:
 264:Core/Src/voltage.c ****         default:
 265:Core/Src/voltage.c ****             break;
 266:Core/Src/voltage.c ****         }
 267:Core/Src/voltage.c **** 
 268:Core/Src/voltage.c ****         for (uint16_t j = 0; j < half_wave_samples; j++)
 269:Core/Src/voltage.c ****         {
 270:Core/Src/voltage.c ****             GPIOSW->BSRR = r1_pin;
 1282              		.loc 1 270 13 view .LVU300
 1283              		.loc 1 270 26 is_stmt 0 view .LVU301
 1284 00fc 3A4E     		ldr	r6, .L95+8
 1285 00fe C6F818A0 		str	r10, [r6, #24]
 271:Core/Src/voltage.c ****             dac_set_voltage(dac_values[j]);
 1286              		.loc 1 271 13 is_stmt 1 view .LVU302
 1287 0102 39F81500 		ldrh	r0, [r9, r5, lsl #1]
 1288 0106 FFF7FEFF 		bl	dac_set_voltage
 1289              	.LVL157:
 272:Core/Src/voltage.c ****             samples[sample].dac_input = dac_values[j];
 1290              		.loc 1 272 13 view .LVU303
 1291              		.loc 1 272 20 is_stmt 0 view .LVU304
ARM GAS  /var/folders/rj/9n9dpytj2n74_jwlj_p0xk9m0000gn/T//ccaWyzcK.s 			page 29


 1292 010a 08EBC40B 		add	fp, r8, r4, lsl #3
 1293              		.loc 1 272 51 view .LVU305
 1294 010e 39F91530 		ldrsh	r3, [r9, r5, lsl #1]
 1295              		.loc 1 272 39 view .LVU306
 1296 0112 28F83430 		strh	r3, [r8, r4, lsl #3]	@ movhi
 273:Core/Src/voltage.c ****             us_delay(sample_delay);
 1297              		.loc 1 273 13 is_stmt 1 view .LVU307
 1298 0116 3869     		ldr	r0, [r7, #16]
 1299 0118 FFF7FEFF 		bl	us_delay
 1300              	.LVL158:
 274:Core/Src/voltage.c ****             GPIOSW->BSRR = r1_pin << 16;
 1301              		.loc 1 274 13 view .LVU308
 1302              		.loc 1 274 35 is_stmt 0 view .LVU309
 1303 011c 4FEA0A43 		lsl	r3, r10, #16
 1304              		.loc 1 274 26 view .LVU310
 1305 0120 B361     		str	r3, [r6, #24]
 275:Core/Src/voltage.c ****             samples[sample].measurement = adc_average(1);
 1306              		.loc 1 275 13 is_stmt 1 view .LVU311
 1307              		.loc 1 275 43 is_stmt 0 view .LVU312
 1308 0122 0120     		movs	r0, #1
 1309 0124 FFF7FEFF 		bl	adc_average
 1310              	.LVL159:
 1311              		.loc 1 275 41 discriminator 1 view .LVU313
 1312 0128 ABF80600 		strh	r0, [fp, #6]	@ movhi
 276:Core/Src/voltage.c ****             sample++;
 1313              		.loc 1 276 13 is_stmt 1 view .LVU314
 1314              		.loc 1 276 19 is_stmt 0 view .LVU315
 1315 012c 0134     		adds	r4, r4, #1
 1316              	.LVL160:
 1317              		.loc 1 276 19 view .LVU316
 1318 012e A4B2     		uxth	r4, r4
 1319              	.LVL161:
 268:Core/Src/voltage.c ****         {
 1320              		.loc 1 268 54 is_stmt 1 discriminator 3 view .LVU317
 1321 0130 0135     		adds	r5, r5, #1
 1322              	.LVL162:
 268:Core/Src/voltage.c ****         {
 1323              		.loc 1 268 54 is_stmt 0 discriminator 3 view .LVU318
 1324 0132 ADB2     		uxth	r5, r5
 1325              	.LVL163:
 1326              	.L81:
 268:Core/Src/voltage.c ****         {
 1327              		.loc 1 268 32 is_stmt 1 discriminator 1 view .LVU319
 1328 0134 7B69     		ldr	r3, [r7, #20]
 1329 0136 9D42     		cmp	r5, r3
 1330 0138 E0D3     		bcc	.L82
 1331              	.LBE7:
 277:Core/Src/voltage.c ****         }
 278:Core/Src/voltage.c **** 
 279:Core/Src/voltage.c ****         switch (electrode)
 1332              		.loc 1 279 9 is_stmt 0 view .LVU320
 1333 013a 5646     		mov	r6, r10
 1334              		.loc 1 279 9 is_stmt 1 view .LVU321
 1335 013c BB68     		ldr	r3, [r7, #8]
 1336 013e 012B     		cmp	r3, #1
 1337 0140 04D0     		beq	.L83
 1338              	.LVL164:
ARM GAS  /var/folders/rj/9n9dpytj2n74_jwlj_p0xk9m0000gn/T//ccaWyzcK.s 			page 30


 1339              		.loc 1 279 9 is_stmt 0 view .LVU322
 1340 0142 022B     		cmp	r3, #2
 1341 0144 0AD0     		beq	.L84
 1342              	.L85:
 1343              	.LBE10:
 234:Core/Src/voltage.c ****     {
 1344              		.loc 1 234 5 view .LVU323
 1345 0146 0025     		movs	r5, #0
 1346              	.LVL165:
 234:Core/Src/voltage.c ****     {
 1347              		.loc 1 234 5 view .LVU324
 1348 0148 B246     		mov	r10, r6
 1349 014a 2CE0     		b	.L86
 1350              	.LVL166:
 1351              	.L83:
 1352              	.LBB11:
 280:Core/Src/voltage.c ****         {
 281:Core/Src/voltage.c ****         case Ti:
 282:Core/Src/voltage.c ****             GPIOSW->BSRR = SW_Ti_Pin_Msk << 16;
 1353              		.loc 1 282 13 is_stmt 1 view .LVU325
 1354              		.loc 1 282 26 is_stmt 0 view .LVU326
 1355 014c 264B     		ldr	r3, .L95+8
 1356 014e 4FF04C62 		mov	r2, #213909504
 1357 0152 9A61     		str	r2, [r3, #24]
 283:Core/Src/voltage.c ****             GPIOSW->BSRR = SW_R1_Ti1_Pin | SW_Ti2_GND_Pin;
 1358              		.loc 1 283 13 is_stmt 1 view .LVU327
 1359              		.loc 1 283 26 is_stmt 0 view .LVU328
 1360 0154 4FF40462 		mov	r2, #2112
 1361 0158 9A61     		str	r2, [r3, #24]
 284:Core/Src/voltage.c ****             break;
 1362              		.loc 1 284 13 is_stmt 1 view .LVU329
 1363 015a F4E7     		b	.L85
 1364              	.L84:
 285:Core/Src/voltage.c ****         case Au_Shielded:
 286:Core/Src/voltage.c ****             GPIOSW->BSRR = (SW_Au_Pin_Msk | SW_Shield_Pin_Msk) << 16;
 1365              		.loc 1 286 13 view .LVU330
 1366              		.loc 1 286 26 is_stmt 0 view .LVU331
 1367 015c 224B     		ldr	r3, .L95+8
 1368 015e 234A     		ldr	r2, .L95+12
 1369 0160 9A61     		str	r2, [r3, #24]
 287:Core/Src/voltage.c ****             GPIOSW->BSRR = SW_R1_Au1_Pin | SW_Shield1_V_Pin | SW_Shield2_GND_Pin;
 1370              		.loc 1 287 13 is_stmt 1 view .LVU332
 1371              		.loc 1 287 26 is_stmt 0 view .LVU333
 1372 0162 49F21002 		movw	r2, #36880
 1373 0166 9A61     		str	r2, [r3, #24]
 288:Core/Src/voltage.c ****             break;
 1374              		.loc 1 288 13 is_stmt 1 view .LVU334
 1375 0168 EDE7     		b	.L85
 1376              	.LVL167:
 1377              	.L87:
 1378              	.LBB8:
 289:Core/Src/voltage.c ****         default:
 290:Core/Src/voltage.c ****             break;
 291:Core/Src/voltage.c ****         }
 292:Core/Src/voltage.c **** 
 293:Core/Src/voltage.c ****         for (uint16_t j = 0; j < half_wave_samples; j++)
 294:Core/Src/voltage.c ****         {
ARM GAS  /var/folders/rj/9n9dpytj2n74_jwlj_p0xk9m0000gn/T//ccaWyzcK.s 			page 31


 295:Core/Src/voltage.c ****             GPIOSW->BSRR = r1_pin;
 1379              		.loc 1 295 13 view .LVU335
 1380              		.loc 1 295 26 is_stmt 0 view .LVU336
 1381 016a 1F4E     		ldr	r6, .L95+8
 1382 016c C6F818A0 		str	r10, [r6, #24]
 296:Core/Src/voltage.c ****             dac_set_voltage(dac_values[j]);
 1383              		.loc 1 296 13 is_stmt 1 view .LVU337
 1384 0170 39F81500 		ldrh	r0, [r9, r5, lsl #1]
 1385 0174 FFF7FEFF 		bl	dac_set_voltage
 1386              	.LVL168:
 297:Core/Src/voltage.c ****             samples[sample].dac_input = -dac_values[j];
 1387              		.loc 1 297 13 view .LVU338
 1388              		.loc 1 297 52 is_stmt 0 view .LVU339
 1389 0178 39F81530 		ldrh	r3, [r9, r5, lsl #1]
 1390              		.loc 1 297 20 view .LVU340
 1391 017c 08EBC40B 		add	fp, r8, r4, lsl #3
 1392              		.loc 1 297 39 view .LVU341
 1393 0180 5B42     		rsbs	r3, r3, #0
 1394 0182 28F83430 		strh	r3, [r8, r4, lsl #3]	@ movhi
 298:Core/Src/voltage.c ****             us_delay(sample_delay);
 1395              		.loc 1 298 13 is_stmt 1 view .LVU342
 1396 0186 3869     		ldr	r0, [r7, #16]
 1397 0188 FFF7FEFF 		bl	us_delay
 1398              	.LVL169:
 299:Core/Src/voltage.c ****             GPIOSW->BSRR = r1_pin << 16;
 1399              		.loc 1 299 13 view .LVU343
 1400              		.loc 1 299 35 is_stmt 0 view .LVU344
 1401 018c 4FEA0A43 		lsl	r3, r10, #16
 1402              		.loc 1 299 26 view .LVU345
 1403 0190 B361     		str	r3, [r6, #24]
 300:Core/Src/voltage.c ****             samples[sample].measurement = -adc_average(1);
 1404              		.loc 1 300 13 is_stmt 1 view .LVU346
 1405              		.loc 1 300 44 is_stmt 0 view .LVU347
 1406 0192 0120     		movs	r0, #1
 1407 0194 FFF7FEFF 		bl	adc_average
 1408              	.LVL170:
 1409              		.loc 1 300 41 discriminator 1 view .LVU348
 1410 0198 4042     		rsbs	r0, r0, #0
 1411 019a ABF80600 		strh	r0, [fp, #6]	@ movhi
 301:Core/Src/voltage.c ****             sample++;
 1412              		.loc 1 301 13 is_stmt 1 view .LVU349
 1413              		.loc 1 301 19 is_stmt 0 view .LVU350
 1414 019e 0134     		adds	r4, r4, #1
 1415              	.LVL171:
 1416              		.loc 1 301 19 view .LVU351
 1417 01a0 A4B2     		uxth	r4, r4
 1418              	.LVL172:
 293:Core/Src/voltage.c ****         {
 1419              		.loc 1 293 54 is_stmt 1 discriminator 3 view .LVU352
 1420 01a2 0135     		adds	r5, r5, #1
 1421              	.LVL173:
 293:Core/Src/voltage.c ****         {
 1422              		.loc 1 293 54 is_stmt 0 discriminator 3 view .LVU353
 1423 01a4 ADB2     		uxth	r5, r5
 1424              	.LVL174:
 1425              	.L86:
 293:Core/Src/voltage.c ****         {
ARM GAS  /var/folders/rj/9n9dpytj2n74_jwlj_p0xk9m0000gn/T//ccaWyzcK.s 			page 32


 1426              		.loc 1 293 32 is_stmt 1 discriminator 1 view .LVU354
 1427 01a6 7B69     		ldr	r3, [r7, #20]
 1428 01a8 9D42     		cmp	r5, r3
 1429 01aa DED3     		bcc	.L87
 293:Core/Src/voltage.c ****         {
 1430              		.loc 1 293 32 is_stmt 0 discriminator 1 view .LVU355
 1431              	.LBE8:
 252:Core/Src/voltage.c ****     {
 1432              		.loc 1 252 41 discriminator 2 view .LVU356
 1433 01ac 5646     		mov	r6, r10
 252:Core/Src/voltage.c ****     {
 1434              		.loc 1 252 41 is_stmt 1 discriminator 2 view .LVU357
 1435 01ae FB68     		ldr	r3, [r7, #12]
 1436 01b0 0133     		adds	r3, r3, #1
 1437 01b2 DBB2     		uxtb	r3, r3
 1438 01b4 FB60     		str	r3, [r7, #12]
 1439              	.LVL175:
 1440              	.L77:
 252:Core/Src/voltage.c ****     {
 1441              		.loc 1 252 27 discriminator 1 view .LVU358
 1442 01b6 FB68     		ldr	r3, [r7, #12]
 1443 01b8 7A68     		ldr	r2, [r7, #4]
 1444 01ba 9342     		cmp	r3, r2
 1445 01bc 07D2     		bcs	.L94
 254:Core/Src/voltage.c ****         {
 1446              		.loc 1 254 9 view .LVU359
 1447 01be BB68     		ldr	r3, [r7, #8]
 1448 01c0 012B     		cmp	r3, #1
 1449 01c2 8CD0     		beq	.L78
 1450 01c4 022B     		cmp	r3, #2
 1451 01c6 92D0     		beq	.L79
 1452              	.LVL176:
 1453              	.L80:
 254:Core/Src/voltage.c ****         {
 1454              		.loc 1 254 9 is_stmt 0 view .LVU360
 1455              	.LBE11:
 234:Core/Src/voltage.c ****     {
 1456              		.loc 1 234 5 view .LVU361
 1457 01c8 0025     		movs	r5, #0
 1458 01ca B246     		mov	r10, r6
 1459 01cc B2E7     		b	.L81
 1460              	.LVL177:
 1461              	.L94:
 302:Core/Src/voltage.c ****         }
 303:Core/Src/voltage.c ****     }
 304:Core/Src/voltage.c **** 
 305:Core/Src/voltage.c ****     reset_muxs();
 1462              		.loc 1 305 5 is_stmt 1 view .LVU362
 1463 01ce FFF7FEFF 		bl	reset_muxs
 1464              	.LVL178:
 306:Core/Src/voltage.c ****     dac_drain();
 1465              		.loc 1 306 5 view .LVU363
 1466 01d2 FFF7FEFF 		bl	dac_drain
 1467              	.LVL179:
 307:Core/Src/voltage.c **** }...
 1468              		.loc 1 307 1 is_stmt 0 view .LVU364
 1469 01d6 1C37     		adds	r7, r7, #28
ARM GAS  /var/folders/rj/9n9dpytj2n74_jwlj_p0xk9m0000gn/T//ccaWyzcK.s 			page 33


 1470              		.cfi_def_cfa_offset 36
 1471 01d8 BD46     		mov	sp, r7
 1472              		.cfi_def_cfa_register 13
 1473              		@ sp needed
 1474 01da BDE8F08F 		pop	{r4, r5, r6, r7, r8, r9, r10, fp, pc}
 1475              	.LVL180:
 1476              	.L96:
 1477              		.loc 1 307 1 view .LVU365
 1478 01de 00BF     		.align	3
 1479              	.L95:
 1480 01e0 00308940 		.word	1082732544
 1481 01e4 0000F03F 		.word	1072693248
 1482 01e8 00080240 		.word	1073874944
 1483 01ec 000030F3 		.word	-214958080
 1484 01f0 1F85EB51 		.word	1374389535
 1485 01f4 B81E0940 		.word	1074339512
 1486              		.cfi_endproc
 1487              	.LFE233:
 1489              		.text
 1490              	.Letext0:
 1491              		.file 2 "/opt/local/arm-none-eabi/include/machine/_default_types.h"
 1492              		.file 3 "/opt/local/arm-none-eabi/include/sys/_stdint.h"
 1493              		.file 4 "Drivers/CMSIS/Device/ST/STM32F4xx/Include/stm32f401xc.h"
 1494              		.file 5 "Drivers/CMSIS/Device/ST/STM32F4xx/Include/stm32f4xx.h"
 1495              		.file 6 "Drivers/STM32F4xx_HAL_Driver/Inc/stm32f4xx_hal_def.h"
 1496              		.file 7 "Drivers/STM32F4xx_HAL_Driver/Inc/stm32f4xx_hal_dma.h"
 1497              		.file 8 "Drivers/STM32F4xx_HAL_Driver/Inc/stm32f4xx_hal_adc.h"
 1498              		.file 9 "Drivers/STM32F4xx_HAL_Driver/Inc/stm32f4xx_hal_i2c.h"
 1499              		.file 10 "Drivers/STM32F4xx_HAL_Driver/Inc/stm32f4xx_hal_tim.h"
 1500              		.file 11 "Core/Inc/adc.h"
 1501              		.file 12 "Core/Inc/i2c.h"
 1502              		.file 13 "Core/Inc/tim.h"
 1503              		.file 14 "../RS485/ProbeConfig.h"
 1504              		.file 15 "Core/Inc/voltage.h"
 1505              		.file 16 "/opt/local/arm-none-eabi/include/math.h"
 1506              		.file 17 "Drivers/STM32F4xx_HAL_Driver/Inc/stm32f4xx_hal.h"
 1507              		.file 18 "Core/Inc/main.h"
ARM GAS  /var/folders/rj/9n9dpytj2n74_jwlj_p0xk9m0000gn/T//ccaWyzcK.s 			page 34

