ARM GAS  /var/folders/rj/9n9dpytj2n74_jwlj_p0xk9m0000gn/T//ccJuC3CQ.s 			page 1


   1              		.cpu cortex-m4
   2              		.arch armv7e-m
   3              		.fpu fpv4-sp-d16
   4              		.eabi_attribute 27, 1
   5              		.eabi_attribute 28, 1
   6              		.eabi_attribute 20, 1
   7              		.eabi_attribute 21, 1
   8              		.eabi_attribute 23, 3
   9              		.eabi_attribute 24, 1
  10              		.eabi_attribute 25, 1
  11              		.eabi_attribute 26, 1
  12              		.eabi_attribute 30, 1
  13              		.eabi_attribute 34, 1
  14              		.eabi_attribute 18, 4
  15              		.file	"voltage.c"
  16              		.text
  17              	.Ltext0:
  18              		.cfi_sections	.debug_frame
  19              		.file 1 "Core/Src/voltage.c"
  20              		.section	.text.dac_write,"ax",%progbits
  21              		.align	1
  22              		.global	dac_write
  23              		.syntax unified
  24              		.thumb
  25              		.thumb_func
  27              	dac_write:
  28              	.LVL0:
  29              	.LFB224:
   1:Core/Src/voltage.c **** /* Includes ------------------------------------------------------------------*/
   2:Core/Src/voltage.c **** #include "voltage.h"
   3:Core/Src/voltage.c **** 
   4:Core/Src/voltage.c **** /* Private variables ---------------------------------------------------------*/
   5:Core/Src/voltage.c **** 
   6:Core/Src/voltage.c **** /* Private user code ---------------------------------------------------------*/
   7:Core/Src/voltage.c **** void resistance_init (void)
   8:Core/Src/voltage.c **** {
   9:Core/Src/voltage.c ****     dac_init();
  10:Core/Src/voltage.c ****     // adc_set_channel(ADC_CHANNEL_SIGNAL);
  11:Core/Src/voltage.c ****     adc_set_channel(ADC_CHANNEL_AMP);
  12:Core/Src/voltage.c ****     reset_muxs();
  13:Core/Src/voltage.c **** }
  14:Core/Src/voltage.c **** 
  15:Core/Src/voltage.c **** void dac_init (void)
  16:Core/Src/voltage.c **** {
  17:Core/Src/voltage.c ****     if (HAL_I2C_IsDeviceReady(&hi2c1, DAC_device_addr, 2, 1000) != HAL_OK)
  18:Core/Src/voltage.c ****     {
  19:Core/Src/voltage.c ****         Error_Handler();
  20:Core/Src/voltage.c ****     }
  21:Core/Src/voltage.c ****     // Reset the DAC
  22:Core/Src/voltage.c ****     dac_write(DAC_mem_addr_trigger, DAC_trigger_reset | DAC_trigger_config_reset);
  23:Core/Src/voltage.c ****     // Power up DAC
  24:Core/Src/voltage.c ****     dac_write(DAC_mem_addr_general_config, DAC_general_config_pdn_power_up);
  25:Core/Src/voltage.c **** }
  26:Core/Src/voltage.c **** 
  27:Core/Src/voltage.c **** void dac_drain (void)
  28:Core/Src/voltage.c **** {
  29:Core/Src/voltage.c ****     dac_write(DAC_mem_addr_dac_data, 0x0000);
ARM GAS  /var/folders/rj/9n9dpytj2n74_jwlj_p0xk9m0000gn/T//ccJuC3CQ.s 			page 2


  30:Core/Src/voltage.c ****     dac_write(DAC_mem_addr_general_config, DAC_general_config_pdn_power_down_10k);
  31:Core/Src/voltage.c ****     HAL_Delay(10);
  32:Core/Src/voltage.c ****     dac_write(DAC_mem_addr_general_config, DAC_general_config_pdn_power_up);
  33:Core/Src/voltage.c **** }
  34:Core/Src/voltage.c **** 
  35:Core/Src/voltage.c **** void dac_set_voltage (uint16_t voltage)
  36:Core/Src/voltage.c **** {
  37:Core/Src/voltage.c ****     dac_write(DAC_mem_addr_dac_data, voltage << 2);
  38:Core/Src/voltage.c **** }
  39:Core/Src/voltage.c **** 
  40:Core/Src/voltage.c **** void dac_write (uint16_t memory_addr, uint16_t data)
  41:Core/Src/voltage.c **** {
  30              		.loc 1 41 1 view -0
  31              		.cfi_startproc
  32              		@ args = 0, pretend = 0, frame = 8
  33              		@ frame_needed = 0, uses_anonymous_args = 0
  34              		.loc 1 41 1 is_stmt 0 view .LVU1
  35 0000 00B5     		push	{lr}
  36              		.cfi_def_cfa_offset 4
  37              		.cfi_offset 14, -4
  38 0002 87B0     		sub	sp, sp, #28
  39              		.cfi_def_cfa_offset 32
  40 0004 0246     		mov	r2, r0
  42:Core/Src/voltage.c ****     uint8_t buf[2] = {0};
  41              		.loc 1 42 5 is_stmt 1 view .LVU2
  42              		.loc 1 42 13 is_stmt 0 view .LVU3
  43 0006 0023     		movs	r3, #0
  44 0008 ADF81430 		strh	r3, [sp, #20]	@ movhi
  43:Core/Src/voltage.c ****     buf[0] = data >> 8;
  45              		.loc 1 43 5 is_stmt 1 view .LVU4
  46              		.loc 1 43 12 is_stmt 0 view .LVU5
  47 000c 0B0A     		lsrs	r3, r1, #8
  48 000e 8DF81430 		strb	r3, [sp, #20]
  44:Core/Src/voltage.c ****     buf[1] = data & 0xff;
  49              		.loc 1 44 5 is_stmt 1 view .LVU6
  50              		.loc 1 44 12 is_stmt 0 view .LVU7
  51 0012 8DF81510 		strb	r1, [sp, #21]
  45:Core/Src/voltage.c ****     if (HAL_I2C_Mem_Write(&hi2c1, DAC_device_addr, memory_addr, 1, buf, 2, 1000) != HAL_OK)
  52              		.loc 1 45 5 is_stmt 1 view .LVU8
  53              		.loc 1 45 9 is_stmt 0 view .LVU9
  54 0016 4FF47A73 		mov	r3, #1000
  55 001a 0293     		str	r3, [sp, #8]
  56 001c 0223     		movs	r3, #2
  57 001e 0193     		str	r3, [sp, #4]
  58 0020 05AB     		add	r3, sp, #20
  59 0022 0093     		str	r3, [sp]
  60 0024 0123     		movs	r3, #1
  61 0026 9021     		movs	r1, #144
  62              	.LVL1:
  63              		.loc 1 45 9 view .LVU10
  64 0028 0448     		ldr	r0, .L5
  65              	.LVL2:
  66              		.loc 1 45 9 view .LVU11
  67 002a FFF7FEFF 		bl	HAL_I2C_Mem_Write
  68              	.LVL3:
  69              		.loc 1 45 8 discriminator 1 view .LVU12
  70 002e 10B9     		cbnz	r0, .L4
ARM GAS  /var/folders/rj/9n9dpytj2n74_jwlj_p0xk9m0000gn/T//ccJuC3CQ.s 			page 3


  71              	.L1:
  46:Core/Src/voltage.c ****     {
  47:Core/Src/voltage.c ****         Error_Handler();
  48:Core/Src/voltage.c ****     }
  49:Core/Src/voltage.c **** }
  72              		.loc 1 49 1 view .LVU13
  73 0030 07B0     		add	sp, sp, #28
  74              		.cfi_remember_state
  75              		.cfi_def_cfa_offset 4
  76              		@ sp needed
  77 0032 5DF804FB 		ldr	pc, [sp], #4
  78              	.L4:
  79              		.cfi_restore_state
  47:Core/Src/voltage.c ****     }
  80              		.loc 1 47 9 is_stmt 1 view .LVU14
  81 0036 FFF7FEFF 		bl	Error_Handler
  82              	.LVL4:
  83              		.loc 1 49 1 is_stmt 0 view .LVU15
  84 003a F9E7     		b	.L1
  85              	.L6:
  86              		.align	2
  87              	.L5:
  88 003c 00000000 		.word	hi2c1
  89              		.cfi_endproc
  90              	.LFE224:
  92              		.section	.text.dac_init,"ax",%progbits
  93              		.align	1
  94              		.global	dac_init
  95              		.syntax unified
  96              		.thumb
  97              		.thumb_func
  99              	dac_init:
 100              	.LFB221:
  16:Core/Src/voltage.c ****     if (HAL_I2C_IsDeviceReady(&hi2c1, DAC_device_addr, 2, 1000) != HAL_OK)
 101              		.loc 1 16 1 is_stmt 1 view -0
 102              		.cfi_startproc
 103              		@ args = 0, pretend = 0, frame = 0
 104              		@ frame_needed = 0, uses_anonymous_args = 0
 105 0000 08B5     		push	{r3, lr}
 106              		.cfi_def_cfa_offset 8
 107              		.cfi_offset 3, -8
 108              		.cfi_offset 14, -4
  17:Core/Src/voltage.c ****     {
 109              		.loc 1 17 5 view .LVU17
  17:Core/Src/voltage.c ****     {
 110              		.loc 1 17 9 is_stmt 0 view .LVU18
 111 0002 4FF47A73 		mov	r3, #1000
 112 0006 0222     		movs	r2, #2
 113 0008 9021     		movs	r1, #144
 114 000a 0848     		ldr	r0, .L11
 115 000c FFF7FEFF 		bl	HAL_I2C_IsDeviceReady
 116              	.LVL5:
  17:Core/Src/voltage.c ****     {
 117              		.loc 1 17 8 discriminator 1 view .LVU19
 118 0010 48B9     		cbnz	r0, .L10
 119              	.L8:
  22:Core/Src/voltage.c ****     // Power up DAC
ARM GAS  /var/folders/rj/9n9dpytj2n74_jwlj_p0xk9m0000gn/T//ccJuC3CQ.s 			page 4


 120              		.loc 1 22 5 is_stmt 1 view .LVU20
 121 0012 4FF40271 		mov	r1, #520
 122 0016 D320     		movs	r0, #211
 123 0018 FFF7FEFF 		bl	dac_write
 124              	.LVL6:
  24:Core/Src/voltage.c **** }
 125              		.loc 1 24 5 view .LVU21
 126 001c 0021     		movs	r1, #0
 127 001e D120     		movs	r0, #209
 128 0020 FFF7FEFF 		bl	dac_write
 129              	.LVL7:
  25:Core/Src/voltage.c **** 
 130              		.loc 1 25 1 is_stmt 0 view .LVU22
 131 0024 08BD     		pop	{r3, pc}
 132              	.L10:
  19:Core/Src/voltage.c ****     }
 133              		.loc 1 19 9 is_stmt 1 view .LVU23
 134 0026 FFF7FEFF 		bl	Error_Handler
 135              	.LVL8:
 136 002a F2E7     		b	.L8
 137              	.L12:
 138              		.align	2
 139              	.L11:
 140 002c 00000000 		.word	hi2c1
 141              		.cfi_endproc
 142              	.LFE221:
 144              		.section	.text.dac_drain,"ax",%progbits
 145              		.align	1
 146              		.global	dac_drain
 147              		.syntax unified
 148              		.thumb
 149              		.thumb_func
 151              	dac_drain:
 152              	.LFB222:
  28:Core/Src/voltage.c ****     dac_write(DAC_mem_addr_dac_data, 0x0000);
 153              		.loc 1 28 1 view -0
 154              		.cfi_startproc
 155              		@ args = 0, pretend = 0, frame = 0
 156              		@ frame_needed = 0, uses_anonymous_args = 0
 157 0000 08B5     		push	{r3, lr}
 158              		.cfi_def_cfa_offset 8
 159              		.cfi_offset 3, -8
 160              		.cfi_offset 14, -4
  29:Core/Src/voltage.c ****     dac_write(DAC_mem_addr_general_config, DAC_general_config_pdn_power_down_10k);
 161              		.loc 1 29 5 view .LVU25
 162 0002 0021     		movs	r1, #0
 163 0004 2120     		movs	r0, #33
 164 0006 FFF7FEFF 		bl	dac_write
 165              	.LVL9:
  30:Core/Src/voltage.c ****     HAL_Delay(10);
 166              		.loc 1 30 5 view .LVU26
 167 000a 0821     		movs	r1, #8
 168 000c D120     		movs	r0, #209
 169 000e FFF7FEFF 		bl	dac_write
 170              	.LVL10:
  31:Core/Src/voltage.c ****     dac_write(DAC_mem_addr_general_config, DAC_general_config_pdn_power_up);
 171              		.loc 1 31 5 view .LVU27
ARM GAS  /var/folders/rj/9n9dpytj2n74_jwlj_p0xk9m0000gn/T//ccJuC3CQ.s 			page 5


 172 0012 0A20     		movs	r0, #10
 173 0014 FFF7FEFF 		bl	HAL_Delay
 174              	.LVL11:
  32:Core/Src/voltage.c **** }
 175              		.loc 1 32 5 view .LVU28
 176 0018 0021     		movs	r1, #0
 177 001a D120     		movs	r0, #209
 178 001c FFF7FEFF 		bl	dac_write
 179              	.LVL12:
  33:Core/Src/voltage.c **** 
 180              		.loc 1 33 1 is_stmt 0 view .LVU29
 181 0020 08BD     		pop	{r3, pc}
 182              		.cfi_endproc
 183              	.LFE222:
 185              		.section	.text.dac_set_voltage,"ax",%progbits
 186              		.align	1
 187              		.global	dac_set_voltage
 188              		.syntax unified
 189              		.thumb
 190              		.thumb_func
 192              	dac_set_voltage:
 193              	.LVL13:
 194              	.LFB223:
  36:Core/Src/voltage.c ****     dac_write(DAC_mem_addr_dac_data, voltage << 2);
 195              		.loc 1 36 1 is_stmt 1 view -0
 196              		.cfi_startproc
 197              		@ args = 0, pretend = 0, frame = 0
 198              		@ frame_needed = 0, uses_anonymous_args = 0
  36:Core/Src/voltage.c ****     dac_write(DAC_mem_addr_dac_data, voltage << 2);
 199              		.loc 1 36 1 is_stmt 0 view .LVU31
 200 0000 08B5     		push	{r3, lr}
 201              		.cfi_def_cfa_offset 8
 202              		.cfi_offset 3, -8
 203              		.cfi_offset 14, -4
  37:Core/Src/voltage.c **** }
 204              		.loc 1 37 5 is_stmt 1 view .LVU32
 205 0002 8100     		lsls	r1, r0, #2
 206 0004 89B2     		uxth	r1, r1
 207 0006 2120     		movs	r0, #33
 208              	.LVL14:
  37:Core/Src/voltage.c **** }
 209              		.loc 1 37 5 is_stmt 0 view .LVU33
 210 0008 FFF7FEFF 		bl	dac_write
 211              	.LVL15:
  38:Core/Src/voltage.c **** 
 212              		.loc 1 38 1 view .LVU34
 213 000c 08BD     		pop	{r3, pc}
 214              		.cfi_endproc
 215              	.LFE223:
 217              		.section	.text.adc_set_channel,"ax",%progbits
 218              		.align	1
 219              		.global	adc_set_channel
 220              		.syntax unified
 221              		.thumb
 222              		.thumb_func
 224              	adc_set_channel:
 225              	.LVL16:
ARM GAS  /var/folders/rj/9n9dpytj2n74_jwlj_p0xk9m0000gn/T//ccJuC3CQ.s 			page 6


 226              	.LFB225:
  50:Core/Src/voltage.c **** 
  51:Core/Src/voltage.c **** void adc_set_channel (ADC_Channel channel)
  52:Core/Src/voltage.c **** {
 227              		.loc 1 52 1 is_stmt 1 view -0
 228              		.cfi_startproc
 229              		@ args = 0, pretend = 0, frame = 16
 230              		@ frame_needed = 0, uses_anonymous_args = 0
 231              		.loc 1 52 1 is_stmt 0 view .LVU36
 232 0000 00B5     		push	{lr}
 233              		.cfi_def_cfa_offset 4
 234              		.cfi_offset 14, -4
 235 0002 85B0     		sub	sp, sp, #20
 236              		.cfi_def_cfa_offset 24
  53:Core/Src/voltage.c ****     ADC_ChannelConfTypeDef sConfig = {channel, 1, ADC_SAMPLETIME_3CYCLES, 0};
 237              		.loc 1 53 5 is_stmt 1 view .LVU37
 238              		.loc 1 53 28 is_stmt 0 view .LVU38
 239 0004 0090     		str	r0, [sp]
 240 0006 0123     		movs	r3, #1
 241 0008 0193     		str	r3, [sp, #4]
 242 000a 0023     		movs	r3, #0
 243 000c 0293     		str	r3, [sp, #8]
 244 000e 0393     		str	r3, [sp, #12]
  54:Core/Src/voltage.c ****     if (HAL_ADC_ConfigChannel(&hadc1, &sConfig) != HAL_OK)
 245              		.loc 1 54 5 is_stmt 1 view .LVU39
 246              		.loc 1 54 9 is_stmt 0 view .LVU40
 247 0010 6946     		mov	r1, sp
 248 0012 0548     		ldr	r0, .L21
 249              	.LVL17:
 250              		.loc 1 54 9 view .LVU41
 251 0014 FFF7FEFF 		bl	HAL_ADC_ConfigChannel
 252              	.LVL18:
 253              		.loc 1 54 8 discriminator 1 view .LVU42
 254 0018 10B9     		cbnz	r0, .L20
 255              	.L17:
  55:Core/Src/voltage.c ****     {
  56:Core/Src/voltage.c ****         Error_Handler();
  57:Core/Src/voltage.c ****     }
  58:Core/Src/voltage.c **** }
 256              		.loc 1 58 1 view .LVU43
 257 001a 05B0     		add	sp, sp, #20
 258              		.cfi_remember_state
 259              		.cfi_def_cfa_offset 4
 260              		@ sp needed
 261 001c 5DF804FB 		ldr	pc, [sp], #4
 262              	.L20:
 263              		.cfi_restore_state
  56:Core/Src/voltage.c ****     }
 264              		.loc 1 56 9 is_stmt 1 view .LVU44
 265 0020 FFF7FEFF 		bl	Error_Handler
 266              	.LVL19:
 267              		.loc 1 58 1 is_stmt 0 view .LVU45
 268 0024 F9E7     		b	.L17
 269              	.L22:
 270 0026 00BF     		.align	2
 271              	.L21:
 272 0028 00000000 		.word	hadc1
ARM GAS  /var/folders/rj/9n9dpytj2n74_jwlj_p0xk9m0000gn/T//ccJuC3CQ.s 			page 7


 273              		.cfi_endproc
 274              	.LFE225:
 276              		.section	.text.adc_average,"ax",%progbits
 277              		.align	1
 278              		.global	adc_average
 279              		.syntax unified
 280              		.thumb
 281              		.thumb_func
 283              	adc_average:
 284              	.LVL20:
 285              	.LFB226:
  59:Core/Src/voltage.c **** 
  60:Core/Src/voltage.c **** uint16_t adc_average (uint16_t adc_samples)
  61:Core/Src/voltage.c **** {
 286              		.loc 1 61 1 is_stmt 1 view -0
 287              		.cfi_startproc
 288              		@ args = 0, pretend = 0, frame = 0
 289              		@ frame_needed = 0, uses_anonymous_args = 0
 290              		.loc 1 61 1 is_stmt 0 view .LVU47
 291 0000 F8B5     		push	{r3, r4, r5, r6, r7, lr}
 292              		.cfi_def_cfa_offset 24
 293              		.cfi_offset 3, -24
 294              		.cfi_offset 4, -20
 295              		.cfi_offset 5, -16
 296              		.cfi_offset 6, -12
 297              		.cfi_offset 7, -8
 298              		.cfi_offset 14, -4
 299 0002 0746     		mov	r7, r0
  62:Core/Src/voltage.c ****     uint32_t sum = 0;
 300              		.loc 1 62 5 is_stmt 1 view .LVU48
 301              	.LVL21:
  63:Core/Src/voltage.c ****     for (uint16_t i = 0; i < adc_samples; i++)
 302              		.loc 1 63 5 view .LVU49
 303              	.LBB2:
 304              		.loc 1 63 10 view .LVU50
 305              		.loc 1 63 19 is_stmt 0 view .LVU51
 306 0004 0024     		movs	r4, #0
 307              	.LBE2:
  62:Core/Src/voltage.c ****     uint32_t sum = 0;
 308              		.loc 1 62 14 view .LVU52
 309 0006 2646     		mov	r6, r4
 310              	.LBB3:
 311              		.loc 1 63 5 view .LVU53
 312 0008 0EE0     		b	.L24
 313              	.LVL22:
 314              	.L25:
  64:Core/Src/voltage.c ****     {
  65:Core/Src/voltage.c ****         HAL_ADC_Start(&hadc1);
 315              		.loc 1 65 9 is_stmt 1 view .LVU54
 316 000a 0A4D     		ldr	r5, .L27
 317 000c 2846     		mov	r0, r5
 318 000e FFF7FEFF 		bl	HAL_ADC_Start
 319              	.LVL23:
  66:Core/Src/voltage.c ****         HAL_ADC_PollForConversion(&hadc1, 1000);
 320              		.loc 1 66 9 view .LVU55
 321 0012 4FF47A71 		mov	r1, #1000
 322 0016 2846     		mov	r0, r5
ARM GAS  /var/folders/rj/9n9dpytj2n74_jwlj_p0xk9m0000gn/T//ccJuC3CQ.s 			page 8


 323 0018 FFF7FEFF 		bl	HAL_ADC_PollForConversion
 324              	.LVL24:
  67:Core/Src/voltage.c ****         sum += HAL_ADC_GetValue(&hadc1);
 325              		.loc 1 67 9 view .LVU56
 326              		.loc 1 67 16 is_stmt 0 view .LVU57
 327 001c 2846     		mov	r0, r5
 328 001e FFF7FEFF 		bl	HAL_ADC_GetValue
 329              	.LVL25:
 330              		.loc 1 67 13 discriminator 1 view .LVU58
 331 0022 0644     		add	r6, r6, r0
 332              	.LVL26:
  63:Core/Src/voltage.c ****     {
 333              		.loc 1 63 44 is_stmt 1 discriminator 3 view .LVU59
 334 0024 0134     		adds	r4, r4, #1
 335              	.LVL27:
  63:Core/Src/voltage.c ****     {
 336              		.loc 1 63 44 is_stmt 0 discriminator 3 view .LVU60
 337 0026 A4B2     		uxth	r4, r4
 338              	.LVL28:
 339              	.L24:
  63:Core/Src/voltage.c ****     {
 340              		.loc 1 63 28 is_stmt 1 discriminator 1 view .LVU61
 341 0028 BC42     		cmp	r4, r7
 342 002a EED3     		bcc	.L25
 343              	.LBE3:
  68:Core/Src/voltage.c ****     }
  69:Core/Src/voltage.c ****     return (uint16_t)sum / adc_samples;
 344              		.loc 1 69 5 view .LVU62
 345              		.loc 1 69 12 is_stmt 0 view .LVU63
 346 002c B6B2     		uxth	r6, r6
 347              	.LVL29:
  70:Core/Src/voltage.c **** }
 348              		.loc 1 70 1 view .LVU64
 349 002e B6FBF7F0 		udiv	r0, r6, r7
 350 0032 F8BD     		pop	{r3, r4, r5, r6, r7, pc}
 351              	.LVL30:
 352              	.L28:
 353              		.loc 1 70 1 view .LVU65
 354              		.align	2
 355              	.L27:
 356 0034 00000000 		.word	hadc1
 357              		.cfi_endproc
 358              	.LFE226:
 360              		.section	.text.reset_muxs,"ax",%progbits
 361              		.align	1
 362              		.global	reset_muxs
 363              		.syntax unified
 364              		.thumb
 365              		.thumb_func
 367              	reset_muxs:
 368              	.LFB227:
  71:Core/Src/voltage.c **** 
  72:Core/Src/voltage.c **** void reset_muxs (void)
  73:Core/Src/voltage.c **** {
 369              		.loc 1 73 1 is_stmt 1 view -0
 370              		.cfi_startproc
 371              		@ args = 0, pretend = 0, frame = 0
ARM GAS  /var/folders/rj/9n9dpytj2n74_jwlj_p0xk9m0000gn/T//ccJuC3CQ.s 			page 9


 372              		@ frame_needed = 0, uses_anonymous_args = 0
 373              		@ link register save eliminated.
  74:Core/Src/voltage.c ****     GPIOSW->BSRR = 0xffff << 16;
 374              		.loc 1 74 5 view .LVU67
 375              		.loc 1 74 18 is_stmt 0 view .LVU68
 376 0000 014B     		ldr	r3, .L30
 377 0002 024A     		ldr	r2, .L30+4
 378 0004 9A61     		str	r2, [r3, #24]
  75:Core/Src/voltage.c **** }
 379              		.loc 1 75 1 view .LVU69
 380 0006 7047     		bx	lr
 381              	.L31:
 382              		.align	2
 383              	.L30:
 384 0008 00080240 		.word	1073874944
 385 000c 0000FFFF 		.word	-65536
 386              		.cfi_endproc
 387              	.LFE227:
 389              		.section	.text.resistance_init,"ax",%progbits
 390              		.align	1
 391              		.global	resistance_init
 392              		.syntax unified
 393              		.thumb
 394              		.thumb_func
 396              	resistance_init:
 397              	.LFB220:
   8:Core/Src/voltage.c ****     dac_init();
 398              		.loc 1 8 1 is_stmt 1 view -0
 399              		.cfi_startproc
 400              		@ args = 0, pretend = 0, frame = 0
 401              		@ frame_needed = 0, uses_anonymous_args = 0
 402 0000 08B5     		push	{r3, lr}
 403              		.cfi_def_cfa_offset 8
 404              		.cfi_offset 3, -8
 405              		.cfi_offset 14, -4
   9:Core/Src/voltage.c ****     // adc_set_channel(ADC_CHANNEL_SIGNAL);
 406              		.loc 1 9 5 view .LVU71
 407 0002 FFF7FEFF 		bl	dac_init
 408              	.LVL31:
  11:Core/Src/voltage.c ****     reset_muxs();
 409              		.loc 1 11 5 view .LVU72
 410 0006 0220     		movs	r0, #2
 411 0008 FFF7FEFF 		bl	adc_set_channel
 412              	.LVL32:
  12:Core/Src/voltage.c **** }
 413              		.loc 1 12 5 view .LVU73
 414 000c FFF7FEFF 		bl	reset_muxs
 415              	.LVL33:
  13:Core/Src/voltage.c **** 
 416              		.loc 1 13 1 is_stmt 0 view .LVU74
 417 0010 08BD     		pop	{r3, pc}
 418              		.cfi_endproc
 419              	.LFE220:
 421              		.section	.text.measure_calib_voltage,"ax",%progbits
 422              		.align	1
 423              		.global	measure_calib_voltage
 424              		.syntax unified
ARM GAS  /var/folders/rj/9n9dpytj2n74_jwlj_p0xk9m0000gn/T//ccJuC3CQ.s 			page 10


 425              		.thumb
 426              		.thumb_func
 428              	measure_calib_voltage:
 429              	.LVL34:
 430              	.LFB228:
  76:Core/Src/voltage.c **** 
  77:Core/Src/voltage.c **** uint16_t measure_calib_voltage (uint16_t adc_samples) {
 431              		.loc 1 77 55 is_stmt 1 view -0
 432              		.cfi_startproc
 433              		@ args = 0, pretend = 0, frame = 0
 434              		@ frame_needed = 0, uses_anonymous_args = 0
 435              		.loc 1 77 55 is_stmt 0 view .LVU76
 436 0000 10B5     		push	{r4, lr}
 437              		.cfi_def_cfa_offset 8
 438              		.cfi_offset 4, -8
 439              		.cfi_offset 14, -4
  78:Core/Src/voltage.c ****     GPIOSW->BSRR = SW_R1_Calib_Pin;
 440              		.loc 1 78 5 is_stmt 1 view .LVU77
 441              		.loc 1 78 18 is_stmt 0 view .LVU78
 442 0002 044C     		ldr	r4, .L36
 443 0004 0823     		movs	r3, #8
 444 0006 A361     		str	r3, [r4, #24]
  79:Core/Src/voltage.c ****     uint16_t adc_val = adc_average(adc_samples);
 445              		.loc 1 79 5 is_stmt 1 view .LVU79
 446              		.loc 1 79 24 is_stmt 0 view .LVU80
 447 0008 FFF7FEFF 		bl	adc_average
 448              	.LVL35:
  80:Core/Src/voltage.c ****     GPIOSW->BSRR = SW_R1_Calib_Pin << 16;
 449              		.loc 1 80 5 is_stmt 1 view .LVU81
 450              		.loc 1 80 18 is_stmt 0 view .LVU82
 451 000c 4FF40023 		mov	r3, #524288
 452 0010 A361     		str	r3, [r4, #24]
  81:Core/Src/voltage.c ****     return adc_val;
 453              		.loc 1 81 5 is_stmt 1 view .LVU83
  82:Core/Src/voltage.c **** }
 454              		.loc 1 82 1 is_stmt 0 view .LVU84
 455 0012 10BD     		pop	{r4, pc}
 456              	.L37:
 457              		.align	2
 458              	.L36:
 459 0014 00080240 		.word	1073874944
 460              		.cfi_endproc
 461              	.LFE228:
 463              		.section	.text.measure_pin_voltage,"ax",%progbits
 464              		.align	1
 465              		.global	measure_pin_voltage
 466              		.syntax unified
 467              		.thumb
 468              		.thumb_func
 470              	measure_pin_voltage:
 471              	.LVL36:
 472              	.LFB229:
  83:Core/Src/voltage.c **** 
  84:Core/Src/voltage.c **** uint16_t measure_pin_voltage (Direction direction, Electrode_Type electrode, uint16_t adc_samples)
  85:Core/Src/voltage.c **** {
 473              		.loc 1 85 1 is_stmt 1 view -0
 474              		.cfi_startproc
ARM GAS  /var/folders/rj/9n9dpytj2n74_jwlj_p0xk9m0000gn/T//ccJuC3CQ.s 			page 11


 475              		@ args = 0, pretend = 0, frame = 0
 476              		@ frame_needed = 0, uses_anonymous_args = 0
 477              		.loc 1 85 1 is_stmt 0 view .LVU86
 478 0000 2DE9F041 		push	{r4, r5, r6, r7, r8, lr}
 479              		.cfi_def_cfa_offset 24
 480              		.cfi_offset 4, -24
 481              		.cfi_offset 5, -20
 482              		.cfi_offset 6, -16
 483              		.cfi_offset 7, -12
 484              		.cfi_offset 8, -8
 485              		.cfi_offset 14, -4
 486 0004 0C46     		mov	r4, r1
 487 0006 1546     		mov	r5, r2
  86:Core/Src/voltage.c ****     uint16_t adc_forward_val = 0, adc_reverse_val = 0;
 488              		.loc 1 86 5 is_stmt 1 view .LVU87
 489              	.LVL37:
  87:Core/Src/voltage.c **** 
  88:Core/Src/voltage.c ****     switch (direction)
 490              		.loc 1 88 5 view .LVU88
 491 0008 0646     		mov	r6, r0
 492 000a 28B3     		cbz	r0, .L46
 493 000c 0128     		cmp	r0, #1
 494 000e 3FD1     		bne	.L47
  89:Core/Src/voltage.c ****     {
  90:Core/Src/voltage.c ****     case BIDIRECTIONAL:
  91:Core/Src/voltage.c ****         switch (electrode)
 495              		.loc 1 91 9 view .LVU89
 496 0010 21B1     		cbz	r1, .L41
 497 0012 0129     		cmp	r1, #1
 498 0014 11D0     		beq	.L42
 499 0016 0027     		movs	r7, #0
 500 0018 3846     		mov	r0, r7
 501              	.LVL38:
 502              		.loc 1 91 9 is_stmt 0 view .LVU90
 503 001a 3BE0     		b	.L40
 504              	.LVL39:
 505              	.L41:
  92:Core/Src/voltage.c ****         {
  93:Core/Src/voltage.c ****         case Au:
  94:Core/Src/voltage.c ****             GPIOSW->BSRR = SW_R1_Au2_Pin | SW_Au1_GND_Pin;
 506              		.loc 1 94 13 is_stmt 1 view .LVU91
 507              		.loc 1 94 26 is_stmt 0 view .LVU92
 508 001c DFF88880 		ldr	r8, .L50
 509 0020 4FF49073 		mov	r3, #288
 510 0024 C8F81830 		str	r3, [r8, #24]
  95:Core/Src/voltage.c ****             adc_reverse_val = adc_average(adc_samples);
 511              		.loc 1 95 13 is_stmt 1 view .LVU93
 512              		.loc 1 95 31 is_stmt 0 view .LVU94
 513 0028 1046     		mov	r0, r2
 514              	.LVL40:
 515              		.loc 1 95 31 view .LVU95
 516 002a FFF7FEFF 		bl	adc_average
 517              	.LVL41:
 518              		.loc 1 95 31 view .LVU96
 519 002e 0746     		mov	r7, r0
 520              	.LVL42:
  96:Core/Src/voltage.c ****             GPIOSW->BSRR = (SW_R1_Au2_Pin | SW_Au1_GND_Pin) << 16;
ARM GAS  /var/folders/rj/9n9dpytj2n74_jwlj_p0xk9m0000gn/T//ccJuC3CQ.s 			page 12


 521              		.loc 1 96 13 is_stmt 1 view .LVU97
 522              		.loc 1 96 26 is_stmt 0 view .LVU98
 523 0030 4FF09073 		mov	r3, #18874368
 524 0034 C8F81830 		str	r3, [r8, #24]
  97:Core/Src/voltage.c ****             break;
 525              		.loc 1 97 13 is_stmt 1 view .LVU99
 526 0038 0FE0     		b	.L39
 527              	.LVL43:
 528              	.L42:
  98:Core/Src/voltage.c ****         case Ti:
  99:Core/Src/voltage.c ****             GPIOSW->BSRR = SW_R1_Ti2_Pin | SW_Ti1_GND_Pin;
 529              		.loc 1 99 13 view .LVU100
 530              		.loc 1 99 26 is_stmt 0 view .LVU101
 531 003a DFF86C80 		ldr	r8, .L50
 532 003e 4FF49063 		mov	r3, #1152
 533 0042 C8F81830 		str	r3, [r8, #24]
 100:Core/Src/voltage.c ****             adc_reverse_val = adc_average(adc_samples);
 534              		.loc 1 100 13 is_stmt 1 view .LVU102
 535              		.loc 1 100 31 is_stmt 0 view .LVU103
 536 0046 1046     		mov	r0, r2
 537              	.LVL44:
 538              		.loc 1 100 31 view .LVU104
 539 0048 FFF7FEFF 		bl	adc_average
 540              	.LVL45:
 541              		.loc 1 100 31 view .LVU105
 542 004c 0746     		mov	r7, r0
 543              	.LVL46:
 101:Core/Src/voltage.c ****             GPIOSW->BSRR = (SW_R1_Ti2_Pin | SW_Ti1_GND_Pin) << 16;
 544              		.loc 1 101 13 is_stmt 1 view .LVU106
 545              		.loc 1 101 26 is_stmt 0 view .LVU107
 546 004e 4FF09063 		mov	r3, #75497472
 547 0052 C8F81830 		str	r3, [r8, #24]
 102:Core/Src/voltage.c ****             break;
 548              		.loc 1 102 13 is_stmt 1 view .LVU108
 549 0056 00E0     		b	.L39
 550              	.LVL47:
 551              	.L46:
  88:Core/Src/voltage.c ****     {
 552              		.loc 1 88 5 is_stmt 0 view .LVU109
 553 0058 0027     		movs	r7, #0
 554              	.LVL48:
 555              	.L39:
 103:Core/Src/voltage.c ****         }
 104:Core/Src/voltage.c ****     case UNIDIRECTIONAL:
 105:Core/Src/voltage.c ****         switch (electrode)
 556              		.loc 1 105 9 is_stmt 1 view .LVU110
 557 005a 1CB1     		cbz	r4, .L43
 558 005c 012C     		cmp	r4, #1
 559 005e 0CD0     		beq	.L44
  88:Core/Src/voltage.c ****     {
 560              		.loc 1 88 5 is_stmt 0 view .LVU111
 561 0060 0020     		movs	r0, #0
 562 0062 17E0     		b	.L40
 563              	.L43:
 106:Core/Src/voltage.c ****         {
 107:Core/Src/voltage.c ****         case Au:
 108:Core/Src/voltage.c ****             GPIOSW->BSRR = SW_R1_Au1_Pin | SW_Au2_GND_Pin;
ARM GAS  /var/folders/rj/9n9dpytj2n74_jwlj_p0xk9m0000gn/T//ccJuC3CQ.s 			page 13


 564              		.loc 1 108 13 is_stmt 1 view .LVU112
 565              		.loc 1 108 26 is_stmt 0 view .LVU113
 566 0064 104C     		ldr	r4, .L50
 567              	.LVL49:
 568              		.loc 1 108 26 view .LVU114
 569 0066 4FF40473 		mov	r3, #528
 570 006a A361     		str	r3, [r4, #24]
 109:Core/Src/voltage.c ****             adc_forward_val = adc_average(adc_samples);
 571              		.loc 1 109 13 is_stmt 1 view .LVU115
 572              		.loc 1 109 31 is_stmt 0 view .LVU116
 573 006c 2846     		mov	r0, r5
 574 006e FFF7FEFF 		bl	adc_average
 575              	.LVL50:
 110:Core/Src/voltage.c ****             GPIOSW->BSRR = (SW_R1_Au1_Pin | SW_Au2_GND_Pin) << 16;
 576              		.loc 1 110 13 is_stmt 1 view .LVU117
 577              		.loc 1 110 26 is_stmt 0 view .LVU118
 578 0072 4FF00473 		mov	r3, #34603008
 579 0076 A361     		str	r3, [r4, #24]
 111:Core/Src/voltage.c ****             break;
 580              		.loc 1 111 13 is_stmt 1 view .LVU119
 581 0078 0CE0     		b	.L40
 582              	.LVL51:
 583              	.L44:
 112:Core/Src/voltage.c ****         case Ti:
 113:Core/Src/voltage.c ****             GPIOSW->BSRR = SW_R1_Ti1_Pin | SW_Ti2_GND_Pin;
 584              		.loc 1 113 13 view .LVU120
 585              		.loc 1 113 26 is_stmt 0 view .LVU121
 586 007a 0B4C     		ldr	r4, .L50
 587 007c 4FF40463 		mov	r3, #2112
 588 0080 A361     		str	r3, [r4, #24]
 114:Core/Src/voltage.c ****             adc_forward_val = adc_average(adc_samples);
 589              		.loc 1 114 13 is_stmt 1 view .LVU122
 590              		.loc 1 114 31 is_stmt 0 view .LVU123
 591 0082 2846     		mov	r0, r5
 592 0084 FFF7FEFF 		bl	adc_average
 593              	.LVL52:
 115:Core/Src/voltage.c ****             GPIOSW->BSRR = (SW_R1_Ti1_Pin | SW_Ti2_GND_Pin) << 16;
 594              		.loc 1 115 13 is_stmt 1 view .LVU124
 595              		.loc 1 115 26 is_stmt 0 view .LVU125
 596 0088 4FF00463 		mov	r3, #138412032
 597 008c A361     		str	r3, [r4, #24]
 116:Core/Src/voltage.c ****             break;
 598              		.loc 1 116 13 is_stmt 1 view .LVU126
 599 008e 01E0     		b	.L40
 600              	.LVL53:
 601              	.L47:
  88:Core/Src/voltage.c ****     {
 602              		.loc 1 88 5 is_stmt 0 view .LVU127
 603 0090 0027     		movs	r7, #0
 604 0092 3846     		mov	r0, r7
 605              	.LVL54:
 606              	.L40:
 117:Core/Src/voltage.c ****         }
 118:Core/Src/voltage.c ****         break;
 119:Core/Src/voltage.c ****     }
 120:Core/Src/voltage.c **** 
 121:Core/Src/voltage.c ****     if (direction == BIDIRECTIONAL) {
ARM GAS  /var/folders/rj/9n9dpytj2n74_jwlj_p0xk9m0000gn/T//ccJuC3CQ.s 			page 14


 607              		.loc 1 121 5 is_stmt 1 view .LVU128
 608              		.loc 1 121 8 is_stmt 0 view .LVU129
 609 0094 012E     		cmp	r6, #1
 610 0096 01D0     		beq	.L49
 611              	.LVL55:
 612              	.L45:
 122:Core/Src/voltage.c ****         return (adc_forward_val + adc_reverse_val) / 2;
 123:Core/Src/voltage.c ****     }
 124:Core/Src/voltage.c ****     return adc_forward_val;
 125:Core/Src/voltage.c **** }
 613              		.loc 1 125 1 view .LVU130
 614 0098 BDE8F081 		pop	{r4, r5, r6, r7, r8, pc}
 615              	.LVL56:
 616              	.L49:
 122:Core/Src/voltage.c ****         return (adc_forward_val + adc_reverse_val) / 2;
 617              		.loc 1 122 9 is_stmt 1 view .LVU131
 122:Core/Src/voltage.c ****         return (adc_forward_val + adc_reverse_val) / 2;
 618              		.loc 1 122 33 is_stmt 0 view .LVU132
 619 009c 3844     		add	r0, r0, r7
 620              	.LVL57:
 122:Core/Src/voltage.c ****         return (adc_forward_val + adc_reverse_val) / 2;
 621              		.loc 1 122 52 view .LVU133
 622 009e 00EBD070 		add	r0, r0, r0, lsr #31
 623 00a2 C0F34F00 		ubfx	r0, r0, #1, #16
 624 00a6 F7E7     		b	.L45
 625              	.L51:
 626              		.align	2
 627              	.L50:
 628 00a8 00080240 		.word	1073874944
 629              		.cfi_endproc
 630              	.LFE229:
 632              		.section	.text.measure_voltage_sweep,"ax",%progbits
 633              		.align	1
 634              		.global	measure_voltage_sweep
 635              		.syntax unified
 636              		.thumb
 637              		.thumb_func
 639              	measure_voltage_sweep:
 640              	.LVL58:
 641              	.LFB230:
 126:Core/Src/voltage.c **** 
 127:Core/Src/voltage.c **** void measure_voltage_sweep (VoltageSample_TypeDef* samples, Direction direction, R1_Type r1, Electr
 128:Core/Src/voltage.c **** {
 642              		.loc 1 128 1 is_stmt 1 view -0
 643              		.cfi_startproc
 644              		@ args = 16, pretend = 0, frame = 8
 645              		@ frame_needed = 0, uses_anonymous_args = 0
 646              		.loc 1 128 1 is_stmt 0 view .LVU135
 647 0000 2DE9F04F 		push	{r4, r5, r6, r7, r8, r9, r10, fp, lr}
 648              		.cfi_def_cfa_offset 36
 649              		.cfi_offset 4, -36
 650              		.cfi_offset 5, -32
 651              		.cfi_offset 6, -28
 652              		.cfi_offset 7, -24
 653              		.cfi_offset 8, -20
 654              		.cfi_offset 9, -16
 655              		.cfi_offset 10, -12
ARM GAS  /var/folders/rj/9n9dpytj2n74_jwlj_p0xk9m0000gn/T//ccJuC3CQ.s 			page 15


 656              		.cfi_offset 11, -8
 657              		.cfi_offset 14, -4
 658 0004 83B0     		sub	sp, sp, #12
 659              		.cfi_def_cfa_offset 48
 660 0006 8046     		mov	r8, r0
 661 0008 0191     		str	r1, [sp, #4]
 662 000a 1446     		mov	r4, r2
 663 000c 9A46     		mov	r10, r3
 664 000e BDF83050 		ldrh	r5, [sp, #48]
 665 0012 BDF838B0 		ldrh	fp, [sp, #56]
 666 0016 BDF83C70 		ldrh	r7, [sp, #60]
 129:Core/Src/voltage.c ****     uint16_t dac_voltage = dac_start;
 667              		.loc 1 129 5 is_stmt 1 view .LVU136
 668              	.LVL59:
 130:Core/Src/voltage.c ****     uint16_t dac_step = (dac_stop - dac_start) / num_samples;
 669              		.loc 1 130 5 view .LVU137
 670              		.loc 1 130 35 is_stmt 0 view .LVU138
 671 001a BDF83490 		ldrh	r9, [sp, #52]
 672 001e A9EB0509 		sub	r9, r9, r5
 673              		.loc 1 130 48 view .LVU139
 674 0022 99FBFBF9 		sdiv	r9, r9, fp
 675              		.loc 1 130 14 view .LVU140
 676 0026 1FFA89F9 		uxth	r9, r9
 677              	.LVL60:
 131:Core/Src/voltage.c **** 
 132:Core/Src/voltage.c ****     reset_muxs();
 678              		.loc 1 132 5 is_stmt 1 view .LVU141
 679 002a FFF7FEFF 		bl	reset_muxs
 680              	.LVL61:
 133:Core/Src/voltage.c ****     dac_drain();
 681              		.loc 1 133 5 view .LVU142
 682 002e FFF7FEFF 		bl	dac_drain
 683              	.LVL62:
 134:Core/Src/voltage.c **** 
 135:Core/Src/voltage.c ****     switch (r1)
 684              		.loc 1 135 5 view .LVU143
 685 0032 012C     		cmp	r4, #1
 686 0034 07D0     		beq	.L53
 687 0036 022C     		cmp	r4, #2
 688 0038 09D0     		beq	.L54
 689 003a 14B9     		cbnz	r4, .L55
 136:Core/Src/voltage.c ****     {
 137:Core/Src/voltage.c ****     case R1_100:
 138:Core/Src/voltage.c ****         GPIOSW->BSRR = SW_R1_100_Pin;
 690              		.loc 1 138 9 view .LVU144
 691              		.loc 1 138 22 is_stmt 0 view .LVU145
 692 003c 1A4B     		ldr	r3, .L59
 693 003e 0122     		movs	r2, #1
 694 0040 9A61     		str	r2, [r3, #24]
 695              	.LVL63:
 139:Core/Src/voltage.c ****         break;
 696              		.loc 1 139 9 is_stmt 1 view .LVU146
 697              	.L55:
 128:Core/Src/voltage.c ****     uint16_t dac_voltage = dac_start;
 698              		.loc 1 128 1 is_stmt 0 view .LVU147
 699 0042 0024     		movs	r4, #0
 700              	.LVL64:
ARM GAS  /var/folders/rj/9n9dpytj2n74_jwlj_p0xk9m0000gn/T//ccJuC3CQ.s 			page 16


 128:Core/Src/voltage.c ****     uint16_t dac_voltage = dac_start;
 701              		.loc 1 128 1 view .LVU148
 702 0044 26E0     		b	.L56
 703              	.LVL65:
 704              	.L53:
 140:Core/Src/voltage.c ****     case R1_1k:
 141:Core/Src/voltage.c ****         GPIOSW->BSRR = SW_R1_1k_Pin;
 705              		.loc 1 141 9 is_stmt 1 view .LVU149
 706              		.loc 1 141 22 is_stmt 0 view .LVU150
 707 0046 184B     		ldr	r3, .L59
 708 0048 0222     		movs	r2, #2
 709 004a 9A61     		str	r2, [r3, #24]
 710              	.LVL66:
 142:Core/Src/voltage.c ****         break;
 711              		.loc 1 142 9 is_stmt 1 view .LVU151
 712 004c F9E7     		b	.L55
 713              	.LVL67:
 714              	.L54:
 143:Core/Src/voltage.c ****     case R1_10k:
 144:Core/Src/voltage.c ****         GPIOSW->BSRR = SW_R1_10k_Pin;
 715              		.loc 1 144 9 view .LVU152
 716              		.loc 1 144 22 is_stmt 0 view .LVU153
 717 004e 164B     		ldr	r3, .L59
 718 0050 0422     		movs	r2, #4
 719 0052 9A61     		str	r2, [r3, #24]
 720              	.LVL68:
 145:Core/Src/voltage.c ****         break;
 721              		.loc 1 145 9 is_stmt 1 view .LVU154
 722 0054 F5E7     		b	.L55
 723              	.LVL69:
 724              	.L57:
 725              	.LBB4:
 146:Core/Src/voltage.c ****     }
 147:Core/Src/voltage.c **** 
 148:Core/Src/voltage.c ****     for (uint16_t i = 0; i < num_samples; i++) {
 149:Core/Src/voltage.c ****         dac_set_voltage(dac_voltage);
 726              		.loc 1 149 9 view .LVU155
 727 0056 2846     		mov	r0, r5
 728 0058 FFF7FEFF 		bl	dac_set_voltage
 729              	.LVL70:
 150:Core/Src/voltage.c **** 
 151:Core/Src/voltage.c ****         samples[i].dac_input = dac_voltage;
 730              		.loc 1 151 9 view .LVU156
 731              		.loc 1 151 16 is_stmt 0 view .LVU157
 732 005c 08EBC406 		add	r6, r8, r4, lsl #3
 733              		.loc 1 151 30 view .LVU158
 734 0060 28F83450 		strh	r5, [r8, r4, lsl #3]	@ movhi
 152:Core/Src/voltage.c **** 
 153:Core/Src/voltage.c ****         adc_set_channel(ADC_CHANNEL_DAC);
 735              		.loc 1 153 9 is_stmt 1 view .LVU159
 736 0064 0120     		movs	r0, #1
 737 0066 FFF7FEFF 		bl	adc_set_channel
 738              	.LVL71:
 154:Core/Src/voltage.c ****         samples[i].dac_output = adc_average(adc_samples);
 739              		.loc 1 154 9 view .LVU160
 740              		.loc 1 154 33 is_stmt 0 view .LVU161
 741 006a 3846     		mov	r0, r7
ARM GAS  /var/folders/rj/9n9dpytj2n74_jwlj_p0xk9m0000gn/T//ccJuC3CQ.s 			page 17


 742 006c FFF7FEFF 		bl	adc_average
 743              	.LVL72:
 744              		.loc 1 154 31 discriminator 1 view .LVU162
 745 0070 7080     		strh	r0, [r6, #2]	@ movhi
 155:Core/Src/voltage.c **** 
 156:Core/Src/voltage.c ****         adc_set_channel(ADC_CHANNEL_AMP);
 746              		.loc 1 156 9 is_stmt 1 view .LVU163
 747 0072 0220     		movs	r0, #2
 748 0074 FFF7FEFF 		bl	adc_set_channel
 749              	.LVL73:
 157:Core/Src/voltage.c ****         samples[i].calib = measure_calib_voltage(adc_samples);
 750              		.loc 1 157 9 view .LVU164
 751              		.loc 1 157 28 is_stmt 0 view .LVU165
 752 0078 3846     		mov	r0, r7
 753 007a FFF7FEFF 		bl	measure_calib_voltage
 754              	.LVL74:
 755              		.loc 1 157 26 discriminator 1 view .LVU166
 756 007e B080     		strh	r0, [r6, #4]	@ movhi
 158:Core/Src/voltage.c **** 
 159:Core/Src/voltage.c ****         samples[i].measurement = measure_pin_voltage(direction, electrode, adc_samples);
 757              		.loc 1 159 9 is_stmt 1 view .LVU167
 758              		.loc 1 159 34 is_stmt 0 view .LVU168
 759 0080 3A46     		mov	r2, r7
 760 0082 5146     		mov	r1, r10
 761 0084 0198     		ldr	r0, [sp, #4]
 762 0086 FFF7FEFF 		bl	measure_pin_voltage
 763              	.LVL75:
 764              		.loc 1 159 32 discriminator 1 view .LVU169
 765 008a F080     		strh	r0, [r6, #6]	@ movhi
 160:Core/Src/voltage.c **** 
 161:Core/Src/voltage.c ****         dac_voltage += dac_step;
 766              		.loc 1 161 9 is_stmt 1 view .LVU170
 767              		.loc 1 161 21 is_stmt 0 view .LVU171
 768 008c 4D44     		add	r5, r5, r9
 769              	.LVL76:
 770              		.loc 1 161 21 view .LVU172
 771 008e ADB2     		uxth	r5, r5
 772              	.LVL77:
 148:Core/Src/voltage.c ****         dac_set_voltage(dac_voltage);
 773              		.loc 1 148 44 is_stmt 1 discriminator 3 view .LVU173
 774 0090 0134     		adds	r4, r4, #1
 775              	.LVL78:
 148:Core/Src/voltage.c ****         dac_set_voltage(dac_voltage);
 776              		.loc 1 148 44 is_stmt 0 discriminator 3 view .LVU174
 777 0092 A4B2     		uxth	r4, r4
 778              	.LVL79:
 779              	.L56:
 148:Core/Src/voltage.c ****         dac_set_voltage(dac_voltage);
 780              		.loc 1 148 28 is_stmt 1 discriminator 1 view .LVU175
 781 0094 5C45     		cmp	r4, fp
 782 0096 DED3     		bcc	.L57
 148:Core/Src/voltage.c ****         dac_set_voltage(dac_voltage);
 783              		.loc 1 148 28 is_stmt 0 discriminator 1 view .LVU176
 784              	.LBE4:
 162:Core/Src/voltage.c ****     }
 163:Core/Src/voltage.c **** 
 164:Core/Src/voltage.c ****     reset_muxs();
ARM GAS  /var/folders/rj/9n9dpytj2n74_jwlj_p0xk9m0000gn/T//ccJuC3CQ.s 			page 18


 785              		.loc 1 164 5 is_stmt 1 view .LVU177
 786 0098 FFF7FEFF 		bl	reset_muxs
 787              	.LVL80:
 165:Core/Src/voltage.c ****     dac_drain();
 788              		.loc 1 165 5 view .LVU178
 789 009c FFF7FEFF 		bl	dac_drain
 790              	.LVL81:
 166:Core/Src/voltage.c **** }
 791              		.loc 1 166 1 is_stmt 0 view .LVU179
 792 00a0 03B0     		add	sp, sp, #12
 793              		.cfi_def_cfa_offset 36
 794              		@ sp needed
 795 00a2 BDE8F08F 		pop	{r4, r5, r6, r7, r8, r9, r10, fp, pc}
 796              	.LVL82:
 797              	.L60:
 798              		.loc 1 166 1 view .LVU180
 799 00a6 00BF     		.align	2
 800              	.L59:
 801 00a8 00080240 		.word	1073874944
 802              		.cfi_endproc
 803              	.LFE230:
 805              		.section	.text.transmit_sample_data_readable,"ax",%progbits
 806              		.align	1
 807              		.global	transmit_sample_data_readable
 808              		.syntax unified
 809              		.thumb
 810              		.thumb_func
 812              	transmit_sample_data_readable:
 813              	.LVL83:
 814              	.LFB231:
 167:Core/Src/voltage.c **** 
 168:Core/Src/voltage.c **** void transmit_sample_data_readable (VoltageSample_TypeDef *samples, uint16_t num_samples)
 169:Core/Src/voltage.c **** {
 815              		.loc 1 169 1 is_stmt 1 view -0
 816              		.cfi_startproc
 817              		@ args = 0, pretend = 0, frame = 0
 818              		@ frame_needed = 0, uses_anonymous_args = 0
 819              		@ link register save eliminated.
 170:Core/Src/voltage.c **** }
 820              		.loc 1 170 1 view .LVU182
 821 0000 7047     		bx	lr
 822              		.cfi_endproc
 823              	.LFE231:
 825              		.section	.text.transmit_sample_data_binary,"ax",%progbits
 826              		.align	1
 827              		.global	transmit_sample_data_binary
 828              		.syntax unified
 829              		.thumb
 830              		.thumb_func
 832              	transmit_sample_data_binary:
 833              	.LVL84:
 834              	.LFB232:
 171:Core/Src/voltage.c **** 
 172:Core/Src/voltage.c **** void transmit_sample_data_binary (VoltageSample_TypeDef *samples, uint16_t num_samples)
 173:Core/Src/voltage.c **** {
 835              		.loc 1 173 1 view -0
 836              		.cfi_startproc
ARM GAS  /var/folders/rj/9n9dpytj2n74_jwlj_p0xk9m0000gn/T//ccJuC3CQ.s 			page 19


 837              		@ args = 0, pretend = 0, frame = 0
 838              		@ frame_needed = 0, uses_anonymous_args = 0
 839              		@ link register save eliminated.
 174:Core/Src/voltage.c **** }...
 840              		.loc 1 174 1 view .LVU184
 841 0000 7047     		bx	lr
 842              		.cfi_endproc
 843              	.LFE232:
 845              		.text
 846              	.Letext0:
 847              		.file 2 "/opt/local/arm-none-eabi/include/machine/_default_types.h"
 848              		.file 3 "/opt/local/arm-none-eabi/include/sys/_stdint.h"
 849              		.file 4 "Drivers/CMSIS/Device/ST/STM32F4xx/Include/stm32f401xc.h"
 850              		.file 5 "Drivers/CMSIS/Device/ST/STM32F4xx/Include/stm32f4xx.h"
 851              		.file 6 "Drivers/STM32F4xx_HAL_Driver/Inc/stm32f4xx_hal_def.h"
 852              		.file 7 "Drivers/STM32F4xx_HAL_Driver/Inc/stm32f4xx_hal_dma.h"
 853              		.file 8 "Drivers/STM32F4xx_HAL_Driver/Inc/stm32f4xx_hal_adc.h"
 854              		.file 9 "Drivers/STM32F4xx_HAL_Driver/Inc/stm32f4xx_hal_i2c.h"
 855              		.file 10 "Core/Inc/i2c.h"
 856              		.file 11 "Core/Inc/adc.h"
 857              		.file 12 "Core/Inc/voltage.h"
 858              		.file 13 "Drivers/STM32F4xx_HAL_Driver/Inc/stm32f4xx_hal.h"
 859              		.file 14 "Core/Inc/main.h"
ARM GAS  /var/folders/rj/9n9dpytj2n74_jwlj_p0xk9m0000gn/T//ccJuC3CQ.s 			page 20


DEFINED SYMBOLS
                            *ABS*:00000000 voltage.c
/var/folders/rj/9n9dpytj2n74_jwlj_p0xk9m0000gn/T//ccJuC3CQ.s:21     .text.dac_write:00000000 $t
/var/folders/rj/9n9dpytj2n74_jwlj_p0xk9m0000gn/T//ccJuC3CQ.s:27     .text.dac_write:00000000 dac_write
/var/folders/rj/9n9dpytj2n74_jwlj_p0xk9m0000gn/T//ccJuC3CQ.s:88     .text.dac_write:0000003c $d
/var/folders/rj/9n9dpytj2n74_jwlj_p0xk9m0000gn/T//ccJuC3CQ.s:93     .text.dac_init:00000000 $t
/var/folders/rj/9n9dpytj2n74_jwlj_p0xk9m0000gn/T//ccJuC3CQ.s:99     .text.dac_init:00000000 dac_init
/var/folders/rj/9n9dpytj2n74_jwlj_p0xk9m0000gn/T//ccJuC3CQ.s:140    .text.dac_init:0000002c $d
/var/folders/rj/9n9dpytj2n74_jwlj_p0xk9m0000gn/T//ccJuC3CQ.s:145    .text.dac_drain:00000000 $t
/var/folders/rj/9n9dpytj2n74_jwlj_p0xk9m0000gn/T//ccJuC3CQ.s:151    .text.dac_drain:00000000 dac_drain
/var/folders/rj/9n9dpytj2n74_jwlj_p0xk9m0000gn/T//ccJuC3CQ.s:186    .text.dac_set_voltage:00000000 $t
/var/folders/rj/9n9dpytj2n74_jwlj_p0xk9m0000gn/T//ccJuC3CQ.s:192    .text.dac_set_voltage:00000000 dac_set_voltage
/var/folders/rj/9n9dpytj2n74_jwlj_p0xk9m0000gn/T//ccJuC3CQ.s:218    .text.adc_set_channel:00000000 $t
/var/folders/rj/9n9dpytj2n74_jwlj_p0xk9m0000gn/T//ccJuC3CQ.s:224    .text.adc_set_channel:00000000 adc_set_channel
/var/folders/rj/9n9dpytj2n74_jwlj_p0xk9m0000gn/T//ccJuC3CQ.s:272    .text.adc_set_channel:00000028 $d
/var/folders/rj/9n9dpytj2n74_jwlj_p0xk9m0000gn/T//ccJuC3CQ.s:277    .text.adc_average:00000000 $t
/var/folders/rj/9n9dpytj2n74_jwlj_p0xk9m0000gn/T//ccJuC3CQ.s:283    .text.adc_average:00000000 adc_average
/var/folders/rj/9n9dpytj2n74_jwlj_p0xk9m0000gn/T//ccJuC3CQ.s:356    .text.adc_average:00000034 $d
/var/folders/rj/9n9dpytj2n74_jwlj_p0xk9m0000gn/T//ccJuC3CQ.s:361    .text.reset_muxs:00000000 $t
/var/folders/rj/9n9dpytj2n74_jwlj_p0xk9m0000gn/T//ccJuC3CQ.s:367    .text.reset_muxs:00000000 reset_muxs
/var/folders/rj/9n9dpytj2n74_jwlj_p0xk9m0000gn/T//ccJuC3CQ.s:384    .text.reset_muxs:00000008 $d
/var/folders/rj/9n9dpytj2n74_jwlj_p0xk9m0000gn/T//ccJuC3CQ.s:390    .text.resistance_init:00000000 $t
/var/folders/rj/9n9dpytj2n74_jwlj_p0xk9m0000gn/T//ccJuC3CQ.s:396    .text.resistance_init:00000000 resistance_init
/var/folders/rj/9n9dpytj2n74_jwlj_p0xk9m0000gn/T//ccJuC3CQ.s:422    .text.measure_calib_voltage:00000000 $t
/var/folders/rj/9n9dpytj2n74_jwlj_p0xk9m0000gn/T//ccJuC3CQ.s:428    .text.measure_calib_voltage:00000000 measure_calib_voltage
/var/folders/rj/9n9dpytj2n74_jwlj_p0xk9m0000gn/T//ccJuC3CQ.s:459    .text.measure_calib_voltage:00000014 $d
/var/folders/rj/9n9dpytj2n74_jwlj_p0xk9m0000gn/T//ccJuC3CQ.s:464    .text.measure_pin_voltage:00000000 $t
/var/folders/rj/9n9dpytj2n74_jwlj_p0xk9m0000gn/T//ccJuC3CQ.s:470    .text.measure_pin_voltage:00000000 measure_pin_voltage
/var/folders/rj/9n9dpytj2n74_jwlj_p0xk9m0000gn/T//ccJuC3CQ.s:628    .text.measure_pin_voltage:000000a8 $d
/var/folders/rj/9n9dpytj2n74_jwlj_p0xk9m0000gn/T//ccJuC3CQ.s:633    .text.measure_voltage_sweep:00000000 $t
/var/folders/rj/9n9dpytj2n74_jwlj_p0xk9m0000gn/T//ccJuC3CQ.s:639    .text.measure_voltage_sweep:00000000 measure_voltage_sweep
/var/folders/rj/9n9dpytj2n74_jwlj_p0xk9m0000gn/T//ccJuC3CQ.s:801    .text.measure_voltage_sweep:000000a8 $d
/var/folders/rj/9n9dpytj2n74_jwlj_p0xk9m0000gn/T//ccJuC3CQ.s:806    .text.transmit_sample_data_readable:00000000 $t
/var/folders/rj/9n9dpytj2n74_jwlj_p0xk9m0000gn/T//ccJuC3CQ.s:812    .text.transmit_sample_data_readable:00000000 transmit_sample_data_readable
/var/folders/rj/9n9dpytj2n74_jwlj_p0xk9m0000gn/T//ccJuC3CQ.s:826    .text.transmit_sample_data_binary:00000000 $t
/var/folders/rj/9n9dpytj2n74_jwlj_p0xk9m0000gn/T//ccJuC3CQ.s:832    .text.transmit_sample_data_binary:00000000 transmit_sample_data_binary

UNDEFINED SYMBOLS
HAL_I2C_Mem_Write
Error_Handler
hi2c1
HAL_I2C_IsDeviceReady
HAL_Delay
HAL_ADC_ConfigChannel
hadc1
HAL_ADC_Start
HAL_ADC_PollForConversion
HAL_ADC_GetValue
